
bomb:     file format elf64-x86-64


Disassembly of section .init:

0000000000400b00 <_init>:
  400b00:	48 83 ec 08          	sub    $0x8,%rsp
  400b04:	48 8b 05 ed 34 20 00 	mov    0x2034ed(%rip),%rax        # 603ff8 <_DYNAMIC+0x1d0>
  400b0b:	48 85 c0             	test   %rax,%rax
  400b0e:	74 05                	je     400b15 <_init+0x15>
  400b10:	e8 0b 01 00 00       	callq  400c20 <__gmon_start__@plt>
  400b15:	48 83 c4 08          	add    $0x8,%rsp
  400b19:	c3                   	retq   

Disassembly of section .plt:

0000000000400b20 <getenv@plt-0x10>:
  400b20:	ff 35 e2 34 20 00    	pushq  0x2034e2(%rip)        # 604008 <_GLOBAL_OFFSET_TABLE_+0x8>
  400b26:	ff 25 e4 34 20 00    	jmpq   *0x2034e4(%rip)        # 604010 <_GLOBAL_OFFSET_TABLE_+0x10>
  400b2c:	0f 1f 40 00          	nopl   0x0(%rax)

0000000000400b30 <getenv@plt>:
  400b30:	ff 25 e2 34 20 00    	jmpq   *0x2034e2(%rip)        # 604018 <_GLOBAL_OFFSET_TABLE_+0x18>
  400b36:	68 00 00 00 00       	pushq  $0x0
  400b3b:	e9 e0 ff ff ff       	jmpq   400b20 <_init+0x20>

0000000000400b40 <strcasecmp@plt>:
  400b40:	ff 25 da 34 20 00    	jmpq   *0x2034da(%rip)        # 604020 <_GLOBAL_OFFSET_TABLE_+0x20>
  400b46:	68 01 00 00 00       	pushq  $0x1
  400b4b:	e9 d0 ff ff ff       	jmpq   400b20 <_init+0x20>

0000000000400b50 <__errno_location@plt>:
  400b50:	ff 25 d2 34 20 00    	jmpq   *0x2034d2(%rip)        # 604028 <_GLOBAL_OFFSET_TABLE_+0x28>
  400b56:	68 02 00 00 00       	pushq  $0x2
  400b5b:	e9 c0 ff ff ff       	jmpq   400b20 <_init+0x20>

0000000000400b60 <strcpy@plt>:
  400b60:	ff 25 ca 34 20 00    	jmpq   *0x2034ca(%rip)        # 604030 <_GLOBAL_OFFSET_TABLE_+0x30>
  400b66:	68 03 00 00 00       	pushq  $0x3
  400b6b:	e9 b0 ff ff ff       	jmpq   400b20 <_init+0x20>

0000000000400b70 <puts@plt>:
  400b70:	ff 25 c2 34 20 00    	jmpq   *0x2034c2(%rip)        # 604038 <_GLOBAL_OFFSET_TABLE_+0x38>
  400b76:	68 04 00 00 00       	pushq  $0x4
  400b7b:	e9 a0 ff ff ff       	jmpq   400b20 <_init+0x20>

0000000000400b80 <write@plt>:
  400b80:	ff 25 ba 34 20 00    	jmpq   *0x2034ba(%rip)        # 604040 <_GLOBAL_OFFSET_TABLE_+0x40>
  400b86:	68 05 00 00 00       	pushq  $0x5
  400b8b:	e9 90 ff ff ff       	jmpq   400b20 <_init+0x20>

0000000000400b90 <printf@plt>:
  400b90:	ff 25 b2 34 20 00    	jmpq   *0x2034b2(%rip)        # 604048 <_GLOBAL_OFFSET_TABLE_+0x48>
  400b96:	68 06 00 00 00       	pushq  $0x6
  400b9b:	e9 80 ff ff ff       	jmpq   400b20 <_init+0x20>

0000000000400ba0 <alarm@plt>:
  400ba0:	ff 25 aa 34 20 00    	jmpq   *0x2034aa(%rip)        # 604050 <_GLOBAL_OFFSET_TABLE_+0x50>
  400ba6:	68 07 00 00 00       	pushq  $0x7
  400bab:	e9 70 ff ff ff       	jmpq   400b20 <_init+0x20>

0000000000400bb0 <close@plt>:
  400bb0:	ff 25 a2 34 20 00    	jmpq   *0x2034a2(%rip)        # 604058 <_GLOBAL_OFFSET_TABLE_+0x58>
  400bb6:	68 08 00 00 00       	pushq  $0x8
  400bbb:	e9 60 ff ff ff       	jmpq   400b20 <_init+0x20>

0000000000400bc0 <read@plt>:
  400bc0:	ff 25 9a 34 20 00    	jmpq   *0x20349a(%rip)        # 604060 <_GLOBAL_OFFSET_TABLE_+0x60>
  400bc6:	68 09 00 00 00       	pushq  $0x9
  400bcb:	e9 50 ff ff ff       	jmpq   400b20 <_init+0x20>

0000000000400bd0 <__libc_start_main@plt>:
  400bd0:	ff 25 92 34 20 00    	jmpq   *0x203492(%rip)        # 604068 <_GLOBAL_OFFSET_TABLE_+0x68>
  400bd6:	68 0a 00 00 00       	pushq  $0xa
  400bdb:	e9 40 ff ff ff       	jmpq   400b20 <_init+0x20>

0000000000400be0 <fgets@plt>:
  400be0:	ff 25 8a 34 20 00    	jmpq   *0x20348a(%rip)        # 604070 <_GLOBAL_OFFSET_TABLE_+0x70>
  400be6:	68 0b 00 00 00       	pushq  $0xb
  400beb:	e9 30 ff ff ff       	jmpq   400b20 <_init+0x20>

0000000000400bf0 <signal@plt>:
  400bf0:	ff 25 82 34 20 00    	jmpq   *0x203482(%rip)        # 604078 <_GLOBAL_OFFSET_TABLE_+0x78>
  400bf6:	68 0c 00 00 00       	pushq  $0xc
  400bfb:	e9 20 ff ff ff       	jmpq   400b20 <_init+0x20>

0000000000400c00 <gethostbyname@plt>:
  400c00:	ff 25 7a 34 20 00    	jmpq   *0x20347a(%rip)        # 604080 <_GLOBAL_OFFSET_TABLE_+0x80>
  400c06:	68 0d 00 00 00       	pushq  $0xd
  400c0b:	e9 10 ff ff ff       	jmpq   400b20 <_init+0x20>

0000000000400c10 <fprintf@plt>:
  400c10:	ff 25 72 34 20 00    	jmpq   *0x203472(%rip)        # 604088 <_GLOBAL_OFFSET_TABLE_+0x88>
  400c16:	68 0e 00 00 00       	pushq  $0xe
  400c1b:	e9 00 ff ff ff       	jmpq   400b20 <_init+0x20>

0000000000400c20 <__gmon_start__@plt>:
  400c20:	ff 25 6a 34 20 00    	jmpq   *0x20346a(%rip)        # 604090 <_GLOBAL_OFFSET_TABLE_+0x90>
  400c26:	68 0f 00 00 00       	pushq  $0xf
  400c2b:	e9 f0 fe ff ff       	jmpq   400b20 <_init+0x20>

0000000000400c30 <strtol@plt>:
  400c30:	ff 25 62 34 20 00    	jmpq   *0x203462(%rip)        # 604098 <_GLOBAL_OFFSET_TABLE_+0x98>
  400c36:	68 10 00 00 00       	pushq  $0x10
  400c3b:	e9 e0 fe ff ff       	jmpq   400b20 <_init+0x20>

0000000000400c40 <fflush@plt>:
  400c40:	ff 25 5a 34 20 00    	jmpq   *0x20345a(%rip)        # 6040a0 <_GLOBAL_OFFSET_TABLE_+0xa0>
  400c46:	68 11 00 00 00       	pushq  $0x11
  400c4b:	e9 d0 fe ff ff       	jmpq   400b20 <_init+0x20>

0000000000400c50 <__isoc99_sscanf@plt>:
  400c50:	ff 25 52 34 20 00    	jmpq   *0x203452(%rip)        # 6040a8 <_GLOBAL_OFFSET_TABLE_+0xa8>
  400c56:	68 12 00 00 00       	pushq  $0x12
  400c5b:	e9 c0 fe ff ff       	jmpq   400b20 <_init+0x20>

0000000000400c60 <memmove@plt>:
  400c60:	ff 25 4a 34 20 00    	jmpq   *0x20344a(%rip)        # 6040b0 <_GLOBAL_OFFSET_TABLE_+0xb0>
  400c66:	68 13 00 00 00       	pushq  $0x13
  400c6b:	e9 b0 fe ff ff       	jmpq   400b20 <_init+0x20>

0000000000400c70 <fopen@plt>:
  400c70:	ff 25 42 34 20 00    	jmpq   *0x203442(%rip)        # 6040b8 <_GLOBAL_OFFSET_TABLE_+0xb8>
  400c76:	68 14 00 00 00       	pushq  $0x14
  400c7b:	e9 a0 fe ff ff       	jmpq   400b20 <_init+0x20>

0000000000400c80 <gethostname@plt>:
  400c80:	ff 25 3a 34 20 00    	jmpq   *0x20343a(%rip)        # 6040c0 <_GLOBAL_OFFSET_TABLE_+0xc0>
  400c86:	68 15 00 00 00       	pushq  $0x15
  400c8b:	e9 90 fe ff ff       	jmpq   400b20 <_init+0x20>

0000000000400c90 <sprintf@plt>:
  400c90:	ff 25 32 34 20 00    	jmpq   *0x203432(%rip)        # 6040c8 <_GLOBAL_OFFSET_TABLE_+0xc8>
  400c96:	68 16 00 00 00       	pushq  $0x16
  400c9b:	e9 80 fe ff ff       	jmpq   400b20 <_init+0x20>

0000000000400ca0 <exit@plt>:
  400ca0:	ff 25 2a 34 20 00    	jmpq   *0x20342a(%rip)        # 6040d0 <_GLOBAL_OFFSET_TABLE_+0xd0>
  400ca6:	68 17 00 00 00       	pushq  $0x17
  400cab:	e9 70 fe ff ff       	jmpq   400b20 <_init+0x20>

0000000000400cb0 <connect@plt>:
  400cb0:	ff 25 22 34 20 00    	jmpq   *0x203422(%rip)        # 6040d8 <_GLOBAL_OFFSET_TABLE_+0xd8>
  400cb6:	68 18 00 00 00       	pushq  $0x18
  400cbb:	e9 60 fe ff ff       	jmpq   400b20 <_init+0x20>

0000000000400cc0 <sleep@plt>:
  400cc0:	ff 25 1a 34 20 00    	jmpq   *0x20341a(%rip)        # 6040e0 <_GLOBAL_OFFSET_TABLE_+0xe0>
  400cc6:	68 19 00 00 00       	pushq  $0x19
  400ccb:	e9 50 fe ff ff       	jmpq   400b20 <_init+0x20>

0000000000400cd0 <__ctype_b_loc@plt>:
  400cd0:	ff 25 12 34 20 00    	jmpq   *0x203412(%rip)        # 6040e8 <_GLOBAL_OFFSET_TABLE_+0xe8>
  400cd6:	68 1a 00 00 00       	pushq  $0x1a
  400cdb:	e9 40 fe ff ff       	jmpq   400b20 <_init+0x20>

0000000000400ce0 <socket@plt>:
  400ce0:	ff 25 0a 34 20 00    	jmpq   *0x20340a(%rip)        # 6040f0 <_GLOBAL_OFFSET_TABLE_+0xf0>
  400ce6:	68 1b 00 00 00       	pushq  $0x1b
  400ceb:	e9 30 fe ff ff       	jmpq   400b20 <_init+0x20>

Disassembly of section .text:

0000000000400cf0 <_start>:
  400cf0:	31 ed                	xor    %ebp,%ebp
  400cf2:	49 89 d1             	mov    %rdx,%r9
  400cf5:	5e                   	pop    %rsi
  400cf6:	48 89 e2             	mov    %rsp,%rdx
  400cf9:	48 83 e4 f0          	and    $0xfffffffffffffff0,%rsp
  400cfd:	50                   	push   %rax
  400cfe:	54                   	push   %rsp
  400cff:	49 c7 c0 f0 22 40 00 	mov    $0x4022f0,%r8
  400d06:	48 c7 c1 80 22 40 00 	mov    $0x402280,%rcx
  400d0d:	48 c7 c7 c2 0d 40 00 	mov    $0x400dc2,%rdi
  400d14:	e8 b7 fe ff ff       	callq  400bd0 <__libc_start_main@plt>
  400d19:	f4                   	hlt    
  400d1a:	66 0f 1f 44 00 00    	nopw   0x0(%rax,%rax,1)

0000000000400d20 <deregister_tm_clones>:
  400d20:	b8 80 47 60 00       	mov    $0x604780,%eax
  400d25:	48 3d 80 47 60 00    	cmp    $0x604780,%rax
  400d2b:	74 13                	je     400d40 <deregister_tm_clones+0x20>
  400d2d:	b8 00 00 00 00       	mov    $0x0,%eax
  400d32:	48 85 c0             	test   %rax,%rax
  400d35:	74 09                	je     400d40 <deregister_tm_clones+0x20>
  400d37:	bf 80 47 60 00       	mov    $0x604780,%edi
  400d3c:	ff e0                	jmpq   *%rax
  400d3e:	66 90                	xchg   %ax,%ax
  400d40:	c3                   	retq   
  400d41:	0f 1f 44 00 00       	nopl   0x0(%rax,%rax,1)
  400d46:	66 2e 0f 1f 84 00 00 	nopw   %cs:0x0(%rax,%rax,1)
  400d4d:	00 00 00 

0000000000400d50 <register_tm_clones>:
  400d50:	be 80 47 60 00       	mov    $0x604780,%esi
  400d55:	48 81 ee 80 47 60 00 	sub    $0x604780,%rsi
  400d5c:	48 89 f0             	mov    %rsi,%rax
  400d5f:	48 c1 ee 3f          	shr    $0x3f,%rsi
  400d63:	48 c1 f8 03          	sar    $0x3,%rax
  400d67:	48 01 c6             	add    %rax,%rsi
  400d6a:	48 d1 fe             	sar    %rsi
  400d6d:	74 11                	je     400d80 <register_tm_clones+0x30>
  400d6f:	b8 00 00 00 00       	mov    $0x0,%eax
  400d74:	48 85 c0             	test   %rax,%rax
  400d77:	74 07                	je     400d80 <register_tm_clones+0x30>
  400d79:	bf 80 47 60 00       	mov    $0x604780,%edi
  400d7e:	ff e0                	jmpq   *%rax
  400d80:	c3                   	retq   
  400d81:	0f 1f 44 00 00       	nopl   0x0(%rax,%rax,1)
  400d86:	66 2e 0f 1f 84 00 00 	nopw   %cs:0x0(%rax,%rax,1)
  400d8d:	00 00 00 

0000000000400d90 <__do_global_dtors_aux>:
  400d90:	80 3d 01 3a 20 00 00 	cmpb   $0x0,0x203a01(%rip)        # 604798 <completed.7311>
  400d97:	75 17                	jne    400db0 <__do_global_dtors_aux+0x20>
  400d99:	55                   	push   %rbp
  400d9a:	48 89 e5             	mov    %rsp,%rbp
  400d9d:	e8 7e ff ff ff       	callq  400d20 <deregister_tm_clones>
  400da2:	c6 05 ef 39 20 00 01 	movb   $0x1,0x2039ef(%rip)        # 604798 <completed.7311>
  400da9:	5d                   	pop    %rbp
  400daa:	c3                   	retq   
  400dab:	0f 1f 44 00 00       	nopl   0x0(%rax,%rax,1)
  400db0:	c3                   	retq   
  400db1:	0f 1f 44 00 00       	nopl   0x0(%rax,%rax,1)
  400db6:	66 2e 0f 1f 84 00 00 	nopw   %cs:0x0(%rax,%rax,1)
  400dbd:	00 00 00 

0000000000400dc0 <frame_dummy>:
  400dc0:	eb 8e                	jmp    400d50 <register_tm_clones>

0000000000400dc2 <main>:
  400dc2:	53                   	push   %rbx
  400dc3:	83 ff 01             	cmp    $0x1,%edi
  400dc6:	0f 84 e8 00 00 00    	je     400eb4 <main+0xf2>
  400dcc:	48 89 f3             	mov    %rsi,%rbx
  400dcf:	83 ff 02             	cmp    $0x2,%edi
  400dd2:	0f 85 0a 01 00 00    	jne    400ee2 <main+0x120>
  400dd8:	48 8b 7e 08          	mov    0x8(%rsi),%rdi
  400ddc:	be 04 23 40 00       	mov    $0x402304,%esi
  400de1:	e8 8a fe ff ff       	callq  400c70 <fopen@plt>
  400de6:	48 89 05 b3 39 20 00 	mov    %rax,0x2039b3(%rip)        # 6047a0 <infile>
  400ded:	48 85 c0             	test   %rax,%rax
  400df0:	0f 84 d1 00 00 00    	je     400ec7 <main+0x105>
  400df6:	e8 a3 05 00 00       	callq  40139e <initialize_bomb>
  400dfb:	bf 88 23 40 00       	mov    $0x402388,%edi
  400e00:	e8 6b fd ff ff       	callq  400b70 <puts@plt>
  400e05:	bf c8 23 40 00       	mov    $0x4023c8,%edi
  400e0a:	e8 61 fd ff ff       	callq  400b70 <puts@plt>
  400e0f:	e8 be 07 00 00       	callq  4015d2 <read_line>
  400e14:	48 89 c7             	mov    %rax,%rdi
  400e17:	e8 e2 00 00 00       	callq  400efe <phase_1>
  400e1c:	e8 df 08 00 00       	callq  401700 <phase_defused>
  400e21:	bf f8 23 40 00       	mov    $0x4023f8,%edi
  400e26:	e8 45 fd ff ff       	callq  400b70 <puts@plt>
  400e2b:	e8 a2 07 00 00       	callq  4015d2 <read_line>
  400e30:	48 89 c7             	mov    %rax,%rdi
  400e33:	e8 e4 00 00 00       	callq  400f1c <phase_2>
  400e38:	e8 c3 08 00 00       	callq  401700 <phase_defused>
  400e3d:	bf 3d 23 40 00       	mov    $0x40233d,%edi
  400e42:	e8 29 fd ff ff       	callq  400b70 <puts@plt>
  400e47:	e8 86 07 00 00       	callq  4015d2 <read_line>
  400e4c:	48 89 c7             	mov    %rax,%rdi
  400e4f:	e8 13 01 00 00       	callq  400f67 <phase_3>
  400e54:	e8 a7 08 00 00       	callq  401700 <phase_defused>
  400e59:	bf 5b 23 40 00       	mov    $0x40235b,%edi
  400e5e:	e8 0d fd ff ff       	callq  400b70 <puts@plt>
  400e63:	e8 6a 07 00 00       	callq  4015d2 <read_line>
  400e68:	48 89 c7             	mov    %rax,%rdi
  400e6b:	e8 ef 01 00 00       	callq  40105f <phase_4>
  400e70:	e8 8b 08 00 00       	callq  401700 <phase_defused>
  400e75:	bf 28 24 40 00       	mov    $0x402428,%edi
  400e7a:	e8 f1 fc ff ff       	callq  400b70 <puts@plt>
  400e7f:	e8 4e 07 00 00       	callq  4015d2 <read_line>
  400e84:	48 89 c7             	mov    %rax,%rdi
  400e87:	e8 2a 02 00 00       	callq  4010b6 <phase_5>
  400e8c:	e8 6f 08 00 00       	callq  401700 <phase_defused>
  400e91:	bf 6a 23 40 00       	mov    $0x40236a,%edi
  400e96:	e8 d5 fc ff ff       	callq  400b70 <puts@plt>
  400e9b:	e8 32 07 00 00       	callq  4015d2 <read_line>
  400ea0:	48 89 c7             	mov    %rax,%rdi
  400ea3:	e8 81 02 00 00       	callq  401129 <phase_6>
  400ea8:	e8 53 08 00 00       	callq  401700 <phase_defused>
  400ead:	b8 00 00 00 00       	mov    $0x0,%eax
  400eb2:	5b                   	pop    %rbx
  400eb3:	c3                   	retq   
  400eb4:	48 8b 05 cd 38 20 00 	mov    0x2038cd(%rip),%rax        # 604788 <stdin@@GLIBC_2.2.5>
  400ebb:	48 89 05 de 38 20 00 	mov    %rax,0x2038de(%rip)        # 6047a0 <infile>
  400ec2:	e9 2f ff ff ff       	jmpq   400df6 <main+0x34>
  400ec7:	48 8b 53 08          	mov    0x8(%rbx),%rdx
  400ecb:	48 8b 33             	mov    (%rbx),%rsi
  400ece:	bf 06 23 40 00       	mov    $0x402306,%edi
  400ed3:	e8 b8 fc ff ff       	callq  400b90 <printf@plt>
  400ed8:	bf 08 00 00 00       	mov    $0x8,%edi
  400edd:	e8 be fd ff ff       	callq  400ca0 <exit@plt>
  400ee2:	48 8b 36             	mov    (%rsi),%rsi
  400ee5:	bf 23 23 40 00       	mov    $0x402323,%edi
  400eea:	b8 00 00 00 00       	mov    $0x0,%eax
  400eef:	e8 9c fc ff ff       	callq  400b90 <printf@plt>
  400ef4:	bf 08 00 00 00       	mov    $0x8,%edi
  400ef9:	e8 a2 fd ff ff       	callq  400ca0 <exit@plt>

0000000000400efe <phase_1>:
  400efe:	48 83 ec 08          	sub    $0x8,%rsp
  400f02:	be 50 24 40 00       	mov    $0x402450,%esi
  400f07:	e8 36 04 00 00       	callq  401342 <strings_not_equal>
  400f0c:	85 c0                	test   %eax,%eax
  400f0e:	75 05                	jne    400f15 <phase_1+0x17>
  400f10:	48 83 c4 08          	add    $0x8,%rsp
  400f14:	c3                   	retq   
  400f15:	e8 43 06 00 00       	callq  40155d <explode_bomb>
  400f1a:	eb f4                	jmp    400f10 <phase_1+0x12>

0000000000400f1c <phase_2>:
  400f1c:	55                   	push   %rbp
  400f1d:	53                   	push   %rbx
  400f1e:	48 83 ec 28          	sub    $0x28,%rsp
  400f22:	48 89 e6             	mov    %rsp,%rsi
  400f25:	e8 69 06 00 00       	callq  401593 <read_six_numbers>
  400f2a:	83 3c 24 00          	cmpl   $0x0,(%rsp)
  400f2e:	75 07                	jne    400f37 <phase_2+0x1b>
  400f30:	83 7c 24 04 01       	cmpl   $0x1,0x4(%rsp)
  400f35:	74 05                	je     400f3c <phase_2+0x20>
  400f37:	e8 21 06 00 00       	callq  40155d <explode_bomb>
  400f3c:	48 89 e3             	mov    %rsp,%rbx
  400f3f:	48 8d 6c 24 10       	lea    0x10(%rsp),%rbp
  400f44:	eb 0e                	jmp    400f54 <phase_2+0x38>
  400f46:	e8 12 06 00 00       	callq  40155d <explode_bomb>
  400f4b:	48 83 c3 04          	add    $0x4,%rbx
  400f4f:	48 39 eb             	cmp    %rbp,%rbx
  400f52:	74 0c                	je     400f60 <phase_2+0x44>
  400f54:	8b 43 04             	mov    0x4(%rbx),%eax
  400f57:	03 03                	add    (%rbx),%eax
  400f59:	39 43 08             	cmp    %eax,0x8(%rbx)
  400f5c:	74 ed                	je     400f4b <phase_2+0x2f>
  400f5e:	eb e6                	jmp    400f46 <phase_2+0x2a>
  400f60:	48 83 c4 28          	add    $0x28,%rsp
  400f64:	5b                   	pop    %rbx
  400f65:	5d                   	pop    %rbp
  400f66:	c3                   	retq   

0000000000400f67 <phase_3>:
  400f67:	48 83 ec 18          	sub    $0x18,%rsp
  400f6b:	48 8d 4c 24 08       	lea    0x8(%rsp),%rcx
  400f70:	48 8d 54 24 0c       	lea    0xc(%rsp),%rdx
  400f75:	be 45 27 40 00       	mov    $0x402745,%esi
  400f7a:	b8 00 00 00 00       	mov    $0x0,%eax
  400f7f:	e8 cc fc ff ff       	callq  400c50 <__isoc99_sscanf@plt>
  400f84:	83 f8 01             	cmp    $0x1,%eax
  400f87:	7e 16                	jle    400f9f <phase_3+0x38>
  400f89:	83 7c 24 0c 07       	cmpl   $0x7,0xc(%rsp)
  400f8e:	0f 87 82 00 00 00    	ja     401016 <phase_3+0xaf>
  400f94:	8b 44 24 0c          	mov    0xc(%rsp),%eax
  400f98:	ff 24 c5 a0 24 40 00 	jmpq   *0x4024a0(,%rax,8)
  400f9f:	e8 b9 05 00 00       	callq  40155d <explode_bomb>
  400fa4:	eb e3                	jmp    400f89 <phase_3+0x22>
  400fa6:	b8 8d 03 00 00       	mov    $0x38d,%eax
  400fab:	2d 82 02 00 00       	sub    $0x282,%eax
  400fb0:	05 4c 02 00 00       	add    $0x24c,%eax
  400fb5:	2d 9f 01 00 00       	sub    $0x19f,%eax
  400fba:	05 9f 01 00 00       	add    $0x19f,%eax
  400fbf:	2d 9f 01 00 00       	sub    $0x19f,%eax
  400fc4:	05 9f 01 00 00       	add    $0x19f,%eax
  400fc9:	2d 9f 01 00 00       	sub    $0x19f,%eax
  400fce:	83 7c 24 0c 05       	cmpl   $0x5,0xc(%rsp)
  400fd3:	7f 06                	jg     400fdb <phase_3+0x74>
  400fd5:	39 44 24 08          	cmp    %eax,0x8(%rsp)
  400fd9:	74 05                	je     400fe0 <phase_3+0x79>
  400fdb:	e8 7d 05 00 00       	callq  40155d <explode_bomb>
  400fe0:	48 83 c4 18          	add    $0x18,%rsp
  400fe4:	c3                   	retq   
  400fe5:	b8 00 00 00 00       	mov    $0x0,%eax
  400fea:	eb bf                	jmp    400fab <phase_3+0x44>
  400fec:	b8 00 00 00 00       	mov    $0x0,%eax
  400ff1:	eb bd                	jmp    400fb0 <phase_3+0x49>
  400ff3:	b8 00 00 00 00       	mov    $0x0,%eax
  400ff8:	eb bb                	jmp    400fb5 <phase_3+0x4e>
  400ffa:	b8 00 00 00 00       	mov    $0x0,%eax
  400fff:	eb b9                	jmp    400fba <phase_3+0x53>
  401001:	b8 00 00 00 00       	mov    $0x0,%eax
  401006:	eb b7                	jmp    400fbf <phase_3+0x58>
  401008:	b8 00 00 00 00       	mov    $0x0,%eax
  40100d:	eb b5                	jmp    400fc4 <phase_3+0x5d>
  40100f:	b8 00 00 00 00       	mov    $0x0,%eax
  401014:	eb b3                	jmp    400fc9 <phase_3+0x62>
  401016:	e8 42 05 00 00       	callq  40155d <explode_bomb>
  40101b:	b8 00 00 00 00       	mov    $0x0,%eax
  401020:	eb ac                	jmp    400fce <phase_3+0x67>

0000000000401022 <func4>:
  401022:	48 83 ec 08          	sub    $0x8,%rsp
  401026:	89 d0                	mov    %edx,%eax
  401028:	29 f0                	sub    %esi,%eax
  40102a:	89 c1                	mov    %eax,%ecx
  40102c:	c1 e9 1f             	shr    $0x1f,%ecx
  40102f:	01 c1                	add    %eax,%ecx
  401031:	d1 f9                	sar    %ecx
  401033:	01 f1                	add    %esi,%ecx
  401035:	39 f9                	cmp    %edi,%ecx
  401037:	7f 0c                	jg     401045 <func4+0x23>
  401039:	b8 00 00 00 00       	mov    $0x0,%eax
  40103e:	7c 11                	jl     401051 <func4+0x2f>
  401040:	48 83 c4 08          	add    $0x8,%rsp
  401044:	c3                   	retq   
  401045:	8d 51 ff             	lea    -0x1(%rcx),%edx
  401048:	e8 d5 ff ff ff       	callq  401022 <func4>
  40104d:	01 c0                	add    %eax,%eax
  40104f:	eb ef                	jmp    401040 <func4+0x1e>
  401051:	8d 71 01             	lea    0x1(%rcx),%esi
  401054:	e8 c9 ff ff ff       	callq  401022 <func4>
  401059:	8d 44 00 01          	lea    0x1(%rax,%rax,1),%eax
  40105d:	eb e1                	jmp    401040 <func4+0x1e>

000000000040105f <phase_4>:
  40105f:	48 83 ec 18          	sub    $0x18,%rsp
  401063:	48 8d 4c 24 08       	lea    0x8(%rsp),%rcx
  401068:	48 8d 54 24 0c       	lea    0xc(%rsp),%rdx
  40106d:	be 45 27 40 00       	mov    $0x402745,%esi
  401072:	b8 00 00 00 00       	mov    $0x0,%eax
  401077:	e8 d4 fb ff ff       	callq  400c50 <__isoc99_sscanf@plt>
  40107c:	83 f8 02             	cmp    $0x2,%eax
  40107f:	75 07                	jne    401088 <phase_4+0x29>
  401081:	83 7c 24 0c 0e       	cmpl   $0xe,0xc(%rsp)
  401086:	76 05                	jbe    40108d <phase_4+0x2e>
  401088:	e8 d0 04 00 00       	callq  40155d <explode_bomb>
  40108d:	ba 0e 00 00 00       	mov    $0xe,%edx
  401092:	be 00 00 00 00       	mov    $0x0,%esi
  401097:	8b 7c 24 0c          	mov    0xc(%rsp),%edi
  40109b:	e8 82 ff ff ff       	callq  401022 <func4>
  4010a0:	83 f8 01             	cmp    $0x1,%eax
  4010a3:	75 07                	jne    4010ac <phase_4+0x4d>
  4010a5:	83 7c 24 08 01       	cmpl   $0x1,0x8(%rsp)
  4010aa:	74 05                	je     4010b1 <phase_4+0x52>
  4010ac:	e8 ac 04 00 00       	callq  40155d <explode_bomb>
  4010b1:	48 83 c4 18          	add    $0x18,%rsp
  4010b5:	c3                   	retq   

00000000004010b6 <phase_5>:
  4010b6:	48 83 ec 18          	sub    $0x18,%rsp
  4010ba:	48 8d 4c 24 08       	lea    0x8(%rsp),%rcx
  4010bf:	48 8d 54 24 0c       	lea    0xc(%rsp),%rdx
  4010c4:	be 45 27 40 00       	mov    $0x402745,%esi
  4010c9:	b8 00 00 00 00       	mov    $0x0,%eax
  4010ce:	e8 7d fb ff ff       	callq  400c50 <__isoc99_sscanf@plt>
  4010d3:	83 f8 01             	cmp    $0x1,%eax
  4010d6:	7e 4a                	jle    401122 <phase_5+0x6c>
  4010d8:	8b 44 24 0c          	mov    0xc(%rsp),%eax
  4010dc:	83 e0 0f             	and    $0xf,%eax
  4010df:	89 44 24 0c          	mov    %eax,0xc(%rsp)
  4010e3:	83 f8 0f             	cmp    $0xf,%eax
  4010e6:	74 30                	je     401118 <phase_5+0x62>
  4010e8:	b9 00 00 00 00       	mov    $0x0,%ecx
  4010ed:	ba 00 00 00 00       	mov    $0x0,%edx
  4010f2:	83 c2 01             	add    $0x1,%edx
  4010f5:	48 98                	cltq   
  4010f7:	8b 04 85 e0 24 40 00 	mov    0x4024e0(,%rax,4),%eax
  4010fe:	01 c1                	add    %eax,%ecx
  401100:	83 f8 0f             	cmp    $0xf,%eax
  401103:	75 ed                	jne    4010f2 <phase_5+0x3c>
  401105:	c7 44 24 0c 0f 00 00 	movl   $0xf,0xc(%rsp)
  40110c:	00 
  40110d:	83 fa 0f             	cmp    $0xf,%edx
  401110:	75 06                	jne    401118 <phase_5+0x62>
  401112:	39 4c 24 08          	cmp    %ecx,0x8(%rsp)
  401116:	74 05                	je     40111d <phase_5+0x67>
  401118:	e8 40 04 00 00       	callq  40155d <explode_bomb>
  40111d:	48 83 c4 18          	add    $0x18,%rsp
  401121:	c3                   	retq   
  401122:	e8 36 04 00 00       	callq  40155d <explode_bomb>
  401127:	eb af                	jmp    4010d8 <phase_5+0x22>

0000000000401129 <phase_6>:
  401129:	41 55                	push   %r13
  40112b:	41 54                	push   %r12
  40112d:	55                   	push   %rbp
  40112e:	53                   	push   %rbx
  40112f:	48 83 ec 58          	sub    $0x58,%rsp
  401133:	48 8d 74 24 30       	lea    0x30(%rsp),%rsi
  401138:	e8 56 04 00 00       	callq  401593 <read_six_numbers>
  40113d:	4c 8d 64 24 30       	lea    0x30(%rsp),%r12
  401142:	41 bd 01 00 00 00    	mov    $0x1,%r13d
  401148:	eb 28                	jmp    401172 <phase_6+0x49>
  40114a:	e8 0e 04 00 00       	callq  40155d <explode_bomb>
  40114f:	eb 30                	jmp    401181 <phase_6+0x58>
  401151:	48 83 c3 01          	add    $0x1,%rbx
  401155:	83 fb 05             	cmp    $0x5,%ebx
  401158:	7f 10                	jg     40116a <phase_6+0x41>
  40115a:	8b 44 9c 30          	mov    0x30(%rsp,%rbx,4),%eax
  40115e:	39 45 00             	cmp    %eax,0x0(%rbp)
  401161:	75 ee                	jne    401151 <phase_6+0x28>
  401163:	e8 f5 03 00 00       	callq  40155d <explode_bomb>
  401168:	eb e7                	jmp    401151 <phase_6+0x28>
  40116a:	49 83 c5 01          	add    $0x1,%r13
  40116e:	49 83 c4 04          	add    $0x4,%r12
  401172:	4c 89 e5             	mov    %r12,%rbp
  401175:	41 8b 04 24          	mov    (%r12),%eax
  401179:	83 e8 01             	sub    $0x1,%eax
  40117c:	83 f8 05             	cmp    $0x5,%eax
  40117f:	77 c9                	ja     40114a <phase_6+0x21>
  401181:	41 83 fd 05          	cmp    $0x5,%r13d
  401185:	7f 05                	jg     40118c <phase_6+0x63>
  401187:	4c 89 eb             	mov    %r13,%rbx
  40118a:	eb ce                	jmp    40115a <phase_6+0x31>
  40118c:	be 00 00 00 00       	mov    $0x0,%esi
  401191:	8b 4c b4 30          	mov    0x30(%rsp,%rsi,4),%ecx
  401195:	b8 01 00 00 00       	mov    $0x1,%eax
  40119a:	ba f0 42 60 00       	mov    $0x6042f0,%edx
  40119f:	83 f9 01             	cmp    $0x1,%ecx
  4011a2:	7e 0b                	jle    4011af <phase_6+0x86>
  4011a4:	48 8b 52 08          	mov    0x8(%rdx),%rdx
  4011a8:	83 c0 01             	add    $0x1,%eax
  4011ab:	39 c8                	cmp    %ecx,%eax
  4011ad:	75 f5                	jne    4011a4 <phase_6+0x7b>
  4011af:	48 89 14 f4          	mov    %rdx,(%rsp,%rsi,8)
  4011b3:	48 83 c6 01          	add    $0x1,%rsi
  4011b7:	48 83 fe 06          	cmp    $0x6,%rsi
  4011bb:	75 d4                	jne    401191 <phase_6+0x68>
  4011bd:	48 8b 1c 24          	mov    (%rsp),%rbx
  4011c1:	48 8b 44 24 08       	mov    0x8(%rsp),%rax
  4011c6:	48 89 43 08          	mov    %rax,0x8(%rbx)
  4011ca:	48 8b 54 24 10       	mov    0x10(%rsp),%rdx
  4011cf:	48 89 50 08          	mov    %rdx,0x8(%rax)
  4011d3:	48 8b 44 24 18       	mov    0x18(%rsp),%rax
  4011d8:	48 89 42 08          	mov    %rax,0x8(%rdx)
  4011dc:	48 8b 54 24 20       	mov    0x20(%rsp),%rdx
  4011e1:	48 89 50 08          	mov    %rdx,0x8(%rax)
  4011e5:	48 8b 44 24 28       	mov    0x28(%rsp),%rax
  4011ea:	48 89 42 08          	mov    %rax,0x8(%rdx)
  4011ee:	48 c7 40 08 00 00 00 	movq   $0x0,0x8(%rax)
  4011f5:	00 
  4011f6:	bd 05 00 00 00       	mov    $0x5,%ebp
  4011fb:	eb 09                	jmp    401206 <phase_6+0xdd>
  4011fd:	48 8b 5b 08          	mov    0x8(%rbx),%rbx
  401201:	83 ed 01             	sub    $0x1,%ebp
  401204:	74 11                	je     401217 <phase_6+0xee>
  401206:	48 8b 43 08          	mov    0x8(%rbx),%rax
  40120a:	8b 00                	mov    (%rax),%eax
  40120c:	39 03                	cmp    %eax,(%rbx)
  40120e:	7d ed                	jge    4011fd <phase_6+0xd4>
  401210:	e8 48 03 00 00       	callq  40155d <explode_bomb>
  401215:	eb e6                	jmp    4011fd <phase_6+0xd4>
  401217:	48 83 c4 58          	add    $0x58,%rsp
  40121b:	5b                   	pop    %rbx
  40121c:	5d                   	pop    %rbp
  40121d:	41 5c                	pop    %r12
  40121f:	41 5d                	pop    %r13
  401221:	c3                   	retq   

0000000000401222 <fun7>:
  401222:	48 85 ff             	test   %rdi,%rdi
  401225:	74 32                	je     401259 <fun7+0x37>
  401227:	48 83 ec 08          	sub    $0x8,%rsp
  40122b:	8b 17                	mov    (%rdi),%edx
  40122d:	39 f2                	cmp    %esi,%edx
  40122f:	7f 0c                	jg     40123d <fun7+0x1b>
  401231:	b8 00 00 00 00       	mov    $0x0,%eax
  401236:	75 12                	jne    40124a <fun7+0x28>
  401238:	48 83 c4 08          	add    $0x8,%rsp
  40123c:	c3                   	retq   
  40123d:	48 8b 7f 08          	mov    0x8(%rdi),%rdi
  401241:	e8 dc ff ff ff       	callq  401222 <fun7>
  401246:	01 c0                	add    %eax,%eax
  401248:	eb ee                	jmp    401238 <fun7+0x16>
  40124a:	48 8b 7f 10          	mov    0x10(%rdi),%rdi
  40124e:	e8 cf ff ff ff       	callq  401222 <fun7>
  401253:	8d 44 00 01          	lea    0x1(%rax,%rax,1),%eax
  401257:	eb df                	jmp    401238 <fun7+0x16>
  401259:	b8 ff ff ff ff       	mov    $0xffffffff,%eax
  40125e:	c3                   	retq   

000000000040125f <secret_phase>:
  40125f:	53                   	push   %rbx
  401260:	e8 6d 03 00 00       	callq  4015d2 <read_line>
  401265:	48 89 c7             	mov    %rax,%rdi
  401268:	ba 0a 00 00 00       	mov    $0xa,%edx
  40126d:	be 00 00 00 00       	mov    $0x0,%esi
  401272:	e8 b9 f9 ff ff       	callq  400c30 <strtol@plt>
  401277:	48 89 c3             	mov    %rax,%rbx
  40127a:	8d 40 ff             	lea    -0x1(%rax),%eax
  40127d:	3d e8 03 00 00       	cmp    $0x3e8,%eax
  401282:	77 22                	ja     4012a6 <secret_phase+0x47>
  401284:	89 de                	mov    %ebx,%esi
  401286:	bf 10 41 60 00       	mov    $0x604110,%edi
  40128b:	e8 92 ff ff ff       	callq  401222 <fun7>
  401290:	83 f8 01             	cmp    $0x1,%eax
  401293:	75 18                	jne    4012ad <secret_phase+0x4e>
  401295:	bf 78 24 40 00       	mov    $0x402478,%edi
  40129a:	e8 d1 f8 ff ff       	callq  400b70 <puts@plt>
  40129f:	e8 5c 04 00 00       	callq  401700 <phase_defused>
  4012a4:	5b                   	pop    %rbx
  4012a5:	c3                   	retq   
  4012a6:	e8 b2 02 00 00       	callq  40155d <explode_bomb>
  4012ab:	eb d7                	jmp    401284 <secret_phase+0x25>
  4012ad:	e8 ab 02 00 00       	callq  40155d <explode_bomb>
  4012b2:	eb e1                	jmp    401295 <secret_phase+0x36>

00000000004012b4 <sig_handler>:
  4012b4:	48 83 ec 08          	sub    $0x8,%rsp
  4012b8:	bf 20 25 40 00       	mov    $0x402520,%edi
  4012bd:	e8 ae f8 ff ff       	callq  400b70 <puts@plt>
  4012c2:	bf 03 00 00 00       	mov    $0x3,%edi
  4012c7:	e8 f4 f9 ff ff       	callq  400cc0 <sleep@plt>
  4012cc:	bf c1 26 40 00       	mov    $0x4026c1,%edi
  4012d1:	b8 00 00 00 00       	mov    $0x0,%eax
  4012d6:	e8 b5 f8 ff ff       	callq  400b90 <printf@plt>
  4012db:	48 8b 3d 9e 34 20 00 	mov    0x20349e(%rip),%rdi        # 604780 <__TMC_END__>
  4012e2:	e8 59 f9 ff ff       	callq  400c40 <fflush@plt>
  4012e7:	bf 01 00 00 00       	mov    $0x1,%edi
  4012ec:	e8 cf f9 ff ff       	callq  400cc0 <sleep@plt>
  4012f1:	bf c9 26 40 00       	mov    $0x4026c9,%edi
  4012f6:	e8 75 f8 ff ff       	callq  400b70 <puts@plt>
  4012fb:	bf 10 00 00 00       	mov    $0x10,%edi
  401300:	e8 9b f9 ff ff       	callq  400ca0 <exit@plt>

0000000000401305 <invalid_phase>:
  401305:	48 83 ec 08          	sub    $0x8,%rsp
  401309:	48 89 fe             	mov    %rdi,%rsi
  40130c:	bf d1 26 40 00       	mov    $0x4026d1,%edi
  401311:	b8 00 00 00 00       	mov    $0x0,%eax
  401316:	e8 75 f8 ff ff       	callq  400b90 <printf@plt>
  40131b:	bf 08 00 00 00       	mov    $0x8,%edi
  401320:	e8 7b f9 ff ff       	callq  400ca0 <exit@plt>

0000000000401325 <string_length>:
  401325:	80 3f 00             	cmpb   $0x0,(%rdi)
  401328:	74 12                	je     40133c <string_length+0x17>
  40132a:	b8 00 00 00 00       	mov    $0x0,%eax
  40132f:	48 83 c7 01          	add    $0x1,%rdi
  401333:	83 c0 01             	add    $0x1,%eax
  401336:	80 3f 00             	cmpb   $0x0,(%rdi)
  401339:	75 f4                	jne    40132f <string_length+0xa>
  40133b:	c3                   	retq   
  40133c:	b8 00 00 00 00       	mov    $0x0,%eax
  401341:	c3                   	retq   

0000000000401342 <strings_not_equal>:
  401342:	41 54                	push   %r12
  401344:	55                   	push   %rbp
  401345:	53                   	push   %rbx
  401346:	48 89 fb             	mov    %rdi,%rbx
  401349:	48 89 f5             	mov    %rsi,%rbp
  40134c:	e8 d4 ff ff ff       	callq  401325 <string_length>
  401351:	41 89 c4             	mov    %eax,%r12d
  401354:	48 89 ef             	mov    %rbp,%rdi
  401357:	e8 c9 ff ff ff       	callq  401325 <string_length>
  40135c:	89 c2                	mov    %eax,%edx
  40135e:	b8 01 00 00 00       	mov    $0x1,%eax
  401363:	41 39 d4             	cmp    %edx,%r12d
  401366:	75 31                	jne    401399 <strings_not_equal+0x57>
  401368:	0f b6 13             	movzbl (%rbx),%edx
  40136b:	84 d2                	test   %dl,%dl
  40136d:	74 1e                	je     40138d <strings_not_equal+0x4b>
  40136f:	b8 00 00 00 00       	mov    $0x0,%eax
  401374:	38 54 05 00          	cmp    %dl,0x0(%rbp,%rax,1)
  401378:	75 1a                	jne    401394 <strings_not_equal+0x52>
  40137a:	48 83 c0 01          	add    $0x1,%rax
  40137e:	0f b6 14 03          	movzbl (%rbx,%rax,1),%edx
  401382:	84 d2                	test   %dl,%dl
  401384:	75 ee                	jne    401374 <strings_not_equal+0x32>
  401386:	b8 00 00 00 00       	mov    $0x0,%eax
  40138b:	eb 0c                	jmp    401399 <strings_not_equal+0x57>
  40138d:	b8 00 00 00 00       	mov    $0x0,%eax
  401392:	eb 05                	jmp    401399 <strings_not_equal+0x57>
  401394:	b8 01 00 00 00       	mov    $0x1,%eax
  401399:	5b                   	pop    %rbx
  40139a:	5d                   	pop    %rbp
  40139b:	41 5c                	pop    %r12
  40139d:	c3                   	retq   

000000000040139e <initialize_bomb>:
  40139e:	53                   	push   %rbx
  40139f:	48 81 ec 40 20 00 00 	sub    $0x2040,%rsp
  4013a6:	be b4 12 40 00       	mov    $0x4012b4,%esi
  4013ab:	bf 02 00 00 00       	mov    $0x2,%edi
  4013b0:	e8 3b f8 ff ff       	callq  400bf0 <signal@plt>
  4013b5:	be 40 00 00 00       	mov    $0x40,%esi
  4013ba:	48 8d bc 24 00 20 00 	lea    0x2000(%rsp),%rdi
  4013c1:	00 
  4013c2:	e8 b9 f8 ff ff       	callq  400c80 <gethostname@plt>
  4013c7:	85 c0                	test   %eax,%eax
  4013c9:	75 43                	jne    40140e <initialize_bomb+0x70>
  4013cb:	48 8b 3d ae 2f 20 00 	mov    0x202fae(%rip),%rdi        # 604380 <host_table>
  4013d2:	bb 88 43 60 00       	mov    $0x604388,%ebx
  4013d7:	48 85 ff             	test   %rdi,%rdi
  4013da:	74 1e                	je     4013fa <initialize_bomb+0x5c>
  4013dc:	48 8d b4 24 00 20 00 	lea    0x2000(%rsp),%rsi
  4013e3:	00 
  4013e4:	e8 57 f7 ff ff       	callq  400b40 <strcasecmp@plt>
  4013e9:	85 c0                	test   %eax,%eax
  4013eb:	74 51                	je     40143e <initialize_bomb+0xa0>
  4013ed:	48 83 c3 08          	add    $0x8,%rbx
  4013f1:	48 8b 7b f8          	mov    -0x8(%rbx),%rdi
  4013f5:	48 85 ff             	test   %rdi,%rdi
  4013f8:	75 e2                	jne    4013dc <initialize_bomb+0x3e>
  4013fa:	bf 90 25 40 00       	mov    $0x402590,%edi
  4013ff:	e8 6c f7 ff ff       	callq  400b70 <puts@plt>
  401404:	bf 08 00 00 00       	mov    $0x8,%edi
  401409:	e8 92 f8 ff ff       	callq  400ca0 <exit@plt>
  40140e:	bf 58 25 40 00       	mov    $0x402558,%edi
  401413:	e8 58 f7 ff ff       	callq  400b70 <puts@plt>
  401418:	bf 08 00 00 00       	mov    $0x8,%edi
  40141d:	e8 7e f8 ff ff       	callq  400ca0 <exit@plt>
  401422:	48 89 e6             	mov    %rsp,%rsi
  401425:	bf e2 26 40 00       	mov    $0x4026e2,%edi
  40142a:	b8 00 00 00 00       	mov    $0x0,%eax
  40142f:	e8 5c f7 ff ff       	callq  400b90 <printf@plt>
  401434:	bf 08 00 00 00       	mov    $0x8,%edi
  401439:	e8 62 f8 ff ff       	callq  400ca0 <exit@plt>
  40143e:	48 89 e7             	mov    %rsp,%rdi
  401441:	e8 29 0c 00 00       	callq  40206f <init_driver>
  401446:	85 c0                	test   %eax,%eax
  401448:	78 d8                	js     401422 <initialize_bomb+0x84>
  40144a:	48 81 c4 40 20 00 00 	add    $0x2040,%rsp
  401451:	5b                   	pop    %rbx
  401452:	c3                   	retq   

0000000000401453 <initialize_bomb_solve>:
  401453:	c3                   	retq   

0000000000401454 <blank_line>:
  401454:	55                   	push   %rbp
  401455:	53                   	push   %rbx
  401456:	48 83 ec 08          	sub    $0x8,%rsp
  40145a:	48 89 fd             	mov    %rdi,%rbp
  40145d:	0f b6 5d 00          	movzbl 0x0(%rbp),%ebx
  401461:	84 db                	test   %bl,%bl
  401463:	74 1e                	je     401483 <blank_line+0x2f>
  401465:	e8 66 f8 ff ff       	callq  400cd0 <__ctype_b_loc@plt>
  40146a:	48 83 c5 01          	add    $0x1,%rbp
  40146e:	48 0f be db          	movsbq %bl,%rbx
  401472:	48 8b 00             	mov    (%rax),%rax
  401475:	f6 44 58 01 20       	testb  $0x20,0x1(%rax,%rbx,2)
  40147a:	75 e1                	jne    40145d <blank_line+0x9>
  40147c:	b8 00 00 00 00       	mov    $0x0,%eax
  401481:	eb 05                	jmp    401488 <blank_line+0x34>
  401483:	b8 01 00 00 00       	mov    $0x1,%eax
  401488:	48 83 c4 08          	add    $0x8,%rsp
  40148c:	5b                   	pop    %rbx
  40148d:	5d                   	pop    %rbp
  40148e:	c3                   	retq   

000000000040148f <skip>:
  40148f:	53                   	push   %rbx
  401490:	48 63 05 05 33 20 00 	movslq 0x203305(%rip),%rax        # 60479c <num_input_strings>
  401497:	48 8d 3c 80          	lea    (%rax,%rax,4),%rdi
  40149b:	48 c1 e7 04          	shl    $0x4,%rdi
  40149f:	48 81 c7 c0 47 60 00 	add    $0x6047c0,%rdi
  4014a6:	48 8b 15 f3 32 20 00 	mov    0x2032f3(%rip),%rdx        # 6047a0 <infile>
  4014ad:	be 50 00 00 00       	mov    $0x50,%esi
  4014b2:	e8 29 f7 ff ff       	callq  400be0 <fgets@plt>
  4014b7:	48 89 c3             	mov    %rax,%rbx
  4014ba:	48 85 c0             	test   %rax,%rax
  4014bd:	74 0c                	je     4014cb <skip+0x3c>
  4014bf:	48 89 c7             	mov    %rax,%rdi
  4014c2:	e8 8d ff ff ff       	callq  401454 <blank_line>
  4014c7:	85 c0                	test   %eax,%eax
  4014c9:	75 c5                	jne    401490 <skip+0x1>
  4014cb:	48 89 d8             	mov    %rbx,%rax
  4014ce:	5b                   	pop    %rbx
  4014cf:	c3                   	retq   

00000000004014d0 <send_msg>:
  4014d0:	48 81 ec 08 40 00 00 	sub    $0x4008,%rsp
  4014d7:	44 8b 05 be 32 20 00 	mov    0x2032be(%rip),%r8d        # 60479c <num_input_strings>
  4014de:	41 8d 40 ff          	lea    -0x1(%r8),%eax
  4014e2:	48 98                	cltq   
  4014e4:	48 8d 04 80          	lea    (%rax,%rax,4),%rax
  4014e8:	48 c1 e0 04          	shl    $0x4,%rax
  4014ec:	85 ff                	test   %edi,%edi
  4014ee:	b9 fc 26 40 00       	mov    $0x4026fc,%ecx
  4014f3:	ba 04 27 40 00       	mov    $0x402704,%edx
  4014f8:	48 0f 44 ca          	cmove  %rdx,%rcx
  4014fc:	4c 8d 88 c0 47 60 00 	lea    0x6047c0(%rax),%r9
  401503:	8b 15 6b 2e 20 00    	mov    0x202e6b(%rip),%edx        # 604374 <bomb_id>
  401509:	be 0d 27 40 00       	mov    $0x40270d,%esi
  40150e:	48 8d bc 24 00 20 00 	lea    0x2000(%rsp),%rdi
  401515:	00 
  401516:	b8 00 00 00 00       	mov    $0x0,%eax
  40151b:	e8 70 f7 ff ff       	callq  400c90 <sprintf@plt>
  401520:	49 89 e0             	mov    %rsp,%r8
  401523:	b9 00 00 00 00       	mov    $0x0,%ecx
  401528:	48 8d 94 24 00 20 00 	lea    0x2000(%rsp),%rdx
  40152f:	00 
  401530:	be 50 43 60 00       	mov    $0x604350,%esi
  401535:	bf 68 43 60 00       	mov    $0x604368,%edi
  40153a:	e8 d6 0c 00 00       	callq  402215 <driver_post>
  40153f:	85 c0                	test   %eax,%eax
  401541:	78 08                	js     40154b <send_msg+0x7b>
  401543:	48 81 c4 08 40 00 00 	add    $0x4008,%rsp
  40154a:	c3                   	retq   
  40154b:	48 89 e7             	mov    %rsp,%rdi
  40154e:	e8 1d f6 ff ff       	callq  400b70 <puts@plt>
  401553:	bf 00 00 00 00       	mov    $0x0,%edi
  401558:	e8 43 f7 ff ff       	callq  400ca0 <exit@plt>

000000000040155d <explode_bomb>:
  40155d:	48 83 ec 08          	sub    $0x8,%rsp
  401561:	bf 19 27 40 00       	mov    $0x402719,%edi
  401566:	e8 05 f6 ff ff       	callq  400b70 <puts@plt>
  40156b:	bf 22 27 40 00       	mov    $0x402722,%edi
  401570:	e8 fb f5 ff ff       	callq  400b70 <puts@plt>
  401575:	bf 00 00 00 00       	mov    $0x0,%edi
  40157a:	e8 51 ff ff ff       	callq  4014d0 <send_msg>
  40157f:	bf c8 25 40 00       	mov    $0x4025c8,%edi
  401584:	e8 e7 f5 ff ff       	callq  400b70 <puts@plt>
  401589:	bf 08 00 00 00       	mov    $0x8,%edi
  40158e:	e8 0d f7 ff ff       	callq  400ca0 <exit@plt>

0000000000401593 <read_six_numbers>:
  401593:	48 83 ec 08          	sub    $0x8,%rsp
  401597:	48 89 f2             	mov    %rsi,%rdx
  40159a:	48 8d 4e 04          	lea    0x4(%rsi),%rcx
  40159e:	48 8d 46 14          	lea    0x14(%rsi),%rax
  4015a2:	50                   	push   %rax
  4015a3:	48 8d 46 10          	lea    0x10(%rsi),%rax
  4015a7:	50                   	push   %rax
  4015a8:	4c 8d 4e 0c          	lea    0xc(%rsi),%r9
  4015ac:	4c 8d 46 08          	lea    0x8(%rsi),%r8
  4015b0:	be 39 27 40 00       	mov    $0x402739,%esi
  4015b5:	b8 00 00 00 00       	mov    $0x0,%eax
  4015ba:	e8 91 f6 ff ff       	callq  400c50 <__isoc99_sscanf@plt>
  4015bf:	48 83 c4 10          	add    $0x10,%rsp
  4015c3:	83 f8 05             	cmp    $0x5,%eax
  4015c6:	7e 05                	jle    4015cd <read_six_numbers+0x3a>
  4015c8:	48 83 c4 08          	add    $0x8,%rsp
  4015cc:	c3                   	retq   
  4015cd:	e8 8b ff ff ff       	callq  40155d <explode_bomb>

00000000004015d2 <read_line>:
  4015d2:	48 83 ec 08          	sub    $0x8,%rsp
  4015d6:	b8 00 00 00 00       	mov    $0x0,%eax
  4015db:	e8 af fe ff ff       	callq  40148f <skip>
  4015e0:	48 85 c0             	test   %rax,%rax
  4015e3:	74 63                	je     401648 <read_line+0x76>
  4015e5:	8b 35 b1 31 20 00    	mov    0x2031b1(%rip),%esi        # 60479c <num_input_strings>
  4015eb:	48 63 c6             	movslq %esi,%rax
  4015ee:	48 8d 14 80          	lea    (%rax,%rax,4),%rdx
  4015f2:	48 c1 e2 04          	shl    $0x4,%rdx
  4015f6:	48 81 c2 c0 47 60 00 	add    $0x6047c0,%rdx
  4015fd:	48 c7 c1 ff ff ff ff 	mov    $0xffffffffffffffff,%rcx
  401604:	b8 00 00 00 00       	mov    $0x0,%eax
  401609:	48 89 d7             	mov    %rdx,%rdi
  40160c:	f2 ae                	repnz scas %es:(%rdi),%al
  40160e:	48 f7 d1             	not    %rcx
  401611:	48 83 e9 01          	sub    $0x1,%rcx
  401615:	83 f9 4e             	cmp    $0x4e,%ecx
  401618:	0f 8f 9c 00 00 00    	jg     4016ba <read_line+0xe8>
  40161e:	83 e9 01             	sub    $0x1,%ecx
  401621:	48 63 c9             	movslq %ecx,%rcx
  401624:	48 63 c6             	movslq %esi,%rax
  401627:	48 8d 04 80          	lea    (%rax,%rax,4),%rax
  40162b:	48 c1 e0 04          	shl    $0x4,%rax
  40162f:	c6 84 01 c0 47 60 00 	movb   $0x0,0x6047c0(%rcx,%rax,1)
  401636:	00 
  401637:	8d 46 01             	lea    0x1(%rsi),%eax
  40163a:	89 05 5c 31 20 00    	mov    %eax,0x20315c(%rip)        # 60479c <num_input_strings>
  401640:	48 89 d0             	mov    %rdx,%rax
  401643:	48 83 c4 08          	add    $0x8,%rsp
  401647:	c3                   	retq   
  401648:	48 8b 05 39 31 20 00 	mov    0x203139(%rip),%rax        # 604788 <stdin@@GLIBC_2.2.5>
  40164f:	48 39 05 4a 31 20 00 	cmp    %rax,0x20314a(%rip)        # 6047a0 <infile>
  401656:	74 19                	je     401671 <read_line+0x9f>
  401658:	bf 69 27 40 00       	mov    $0x402769,%edi
  40165d:	e8 ce f4 ff ff       	callq  400b30 <getenv@plt>
  401662:	48 85 c0             	test   %rax,%rax
  401665:	74 1e                	je     401685 <read_line+0xb3>
  401667:	bf 00 00 00 00       	mov    $0x0,%edi
  40166c:	e8 2f f6 ff ff       	callq  400ca0 <exit@plt>
  401671:	bf 4b 27 40 00       	mov    $0x40274b,%edi
  401676:	e8 f5 f4 ff ff       	callq  400b70 <puts@plt>
  40167b:	bf 08 00 00 00       	mov    $0x8,%edi
  401680:	e8 1b f6 ff ff       	callq  400ca0 <exit@plt>
  401685:	48 8b 05 fc 30 20 00 	mov    0x2030fc(%rip),%rax        # 604788 <stdin@@GLIBC_2.2.5>
  40168c:	48 89 05 0d 31 20 00 	mov    %rax,0x20310d(%rip)        # 6047a0 <infile>
  401693:	b8 00 00 00 00       	mov    $0x0,%eax
  401698:	e8 f2 fd ff ff       	callq  40148f <skip>
  40169d:	48 85 c0             	test   %rax,%rax
  4016a0:	0f 85 3f ff ff ff    	jne    4015e5 <read_line+0x13>
  4016a6:	bf 4b 27 40 00       	mov    $0x40274b,%edi
  4016ab:	e8 c0 f4 ff ff       	callq  400b70 <puts@plt>
  4016b0:	bf 00 00 00 00       	mov    $0x0,%edi
  4016b5:	e8 e6 f5 ff ff       	callq  400ca0 <exit@plt>
  4016ba:	bf 74 27 40 00       	mov    $0x402774,%edi
  4016bf:	e8 ac f4 ff ff       	callq  400b70 <puts@plt>
  4016c4:	8b 05 d2 30 20 00    	mov    0x2030d2(%rip),%eax        # 60479c <num_input_strings>
  4016ca:	8d 50 01             	lea    0x1(%rax),%edx
  4016cd:	89 15 c9 30 20 00    	mov    %edx,0x2030c9(%rip)        # 60479c <num_input_strings>
  4016d3:	48 98                	cltq   
  4016d5:	48 6b c0 50          	imul   $0x50,%rax,%rax
  4016d9:	48 be 2a 2a 2a 74 72 	mov    $0x636e7572742a2a2a,%rsi
  4016e0:	75 6e 63 
  4016e3:	48 bf 61 74 65 64 2a 	mov    $0x2a2a2a64657461,%rdi
  4016ea:	2a 2a 00 
  4016ed:	48 89 b0 c0 47 60 00 	mov    %rsi,0x6047c0(%rax)
  4016f4:	48 89 b8 c8 47 60 00 	mov    %rdi,0x6047c8(%rax)
  4016fb:	e8 5d fe ff ff       	callq  40155d <explode_bomb>

0000000000401700 <phase_defused>:
  401700:	48 83 ec 68          	sub    $0x68,%rsp
  401704:	bf 01 00 00 00       	mov    $0x1,%edi
  401709:	e8 c2 fd ff ff       	callq  4014d0 <send_msg>
40125f  40170e:	83 3d 87 30 20 00 06 	cmpl   $0x6,0x203087(%rip)        # 60479c <num_input_strings>
  401715:	74 05                	je     40171c <phase_defused+0x1c>
  401717:	48 83 c4 68          	add    $0x68,%rsp
  40171b:	c3                   	retq   
  40171c:	4c 8d 44 24 10       	lea    0x10(%rsp),%r8
  401721:	48 8d 4c 24 08       	lea    0x8(%rsp),%rcx
  401726:	48 8d 54 24 0c       	lea    0xc(%rsp),%rdx
  40172b:	be 8f 27 40 00       	mov    $0x40278f,%esi
  401730:	bf b0 48 60 00       	mov    $0x6048b0,%edi
  401735:	b8 00 00 00 00       	mov    $0x0,%eax
  40173a:	e8 11 f5 ff ff       	callq  400c50 <__isoc99_sscanf@plt>
  40173f:	83 f8 03             	cmp    $0x3,%eax
  401742:	74 16                	je     40175a <phase_defused+0x5a>
  401744:	bf 50 26 40 00       	mov    $0x402650,%edi
  401749:	e8 22 f4 ff ff       	callq  400b70 <puts@plt>
  40174e:	bf 80 26 40 00       	mov    $0x402680,%edi
  401753:	e8 18 f4 ff ff       	callq  400b70 <puts@plt>
  401758:	eb bd                	jmp    401717 <phase_defused+0x17>
  40175a:	be 98 27 40 00       	mov    $0x402798,%esi
  40175f:	48 8d 7c 24 10       	lea    0x10(%rsp),%rdi
  401764:	e8 d9 fb ff ff       	callq  401342 <strings_not_equal>
  401769:	85 c0                	test   %eax,%eax
  40176b:	75 d7                	jne    401744 <phase_defused+0x44>
  40176d:	bf f0 25 40 00       	mov    $0x4025f0,%edi
  401772:	e8 f9 f3 ff ff       	callq  400b70 <puts@plt>
  401777:	bf 18 26 40 00       	mov    $0x402618,%edi
  40177c:	e8 ef f3 ff ff       	callq  400b70 <puts@plt>
  401781:	b8 00 00 00 00       	mov    $0x0,%eax
  401786:	e8 d4 fa ff ff       	callq  40125f <secret_phase>
  40178b:	eb b7                	jmp    401744 <phase_defused+0x44>

000000000040178d <sigalrm_handler>:
  40178d:	48 83 ec 08          	sub    $0x8,%rsp
  401791:	ba 00 00 00 00       	mov    $0x0,%edx
  401796:	be a8 28 40 00       	mov    $0x4028a8,%esi
  40179b:	48 8b 3d ee 2f 20 00 	mov    0x202fee(%rip),%rdi        # 604790 <stderr@@GLIBC_2.2.5>
  4017a2:	b8 00 00 00 00       	mov    $0x0,%eax
  4017a7:	e8 64 f4 ff ff       	callq  400c10 <fprintf@plt>
  4017ac:	bf 01 00 00 00       	mov    $0x1,%edi
  4017b1:	e8 ea f4 ff ff       	callq  400ca0 <exit@plt>

00000000004017b6 <rio_readlineb>:
  4017b6:	41 56                	push   %r14
  4017b8:	41 55                	push   %r13
  4017ba:	41 54                	push   %r12
  4017bc:	55                   	push   %rbp
  4017bd:	53                   	push   %rbx
  4017be:	48 89 f5             	mov    %rsi,%rbp
  4017c1:	48 83 fa 01          	cmp    $0x1,%rdx
  4017c5:	0f 86 90 00 00 00    	jbe    40185b <rio_readlineb+0xa5>
  4017cb:	48 89 fb             	mov    %rdi,%rbx
  4017ce:	4c 8d 74 16 ff       	lea    -0x1(%rsi,%rdx,1),%r14
  4017d3:	41 bd 01 00 00 00    	mov    $0x1,%r13d
  4017d9:	4c 8d 67 10          	lea    0x10(%rdi),%r12
  4017dd:	eb 54                	jmp    401833 <rio_readlineb+0x7d>
  4017df:	e8 6c f3 ff ff       	callq  400b50 <__errno_location@plt>
  4017e4:	83 38 04             	cmpl   $0x4,(%rax)
  4017e7:	75 53                	jne    40183c <rio_readlineb+0x86>
  4017e9:	ba 00 20 00 00       	mov    $0x2000,%edx
  4017ee:	4c 89 e6             	mov    %r12,%rsi
  4017f1:	8b 3b                	mov    (%rbx),%edi
  4017f3:	e8 c8 f3 ff ff       	callq  400bc0 <read@plt>
  4017f8:	89 c2                	mov    %eax,%edx
  4017fa:	89 43 04             	mov    %eax,0x4(%rbx)
  4017fd:	85 c0                	test   %eax,%eax
  4017ff:	78 de                	js     4017df <rio_readlineb+0x29>
  401801:	85 c0                	test   %eax,%eax
  401803:	74 40                	je     401845 <rio_readlineb+0x8f>
  401805:	4c 89 63 08          	mov    %r12,0x8(%rbx)
  401809:	48 8b 43 08          	mov    0x8(%rbx),%rax
  40180d:	0f b6 08             	movzbl (%rax),%ecx
  401810:	48 83 c0 01          	add    $0x1,%rax
  401814:	48 89 43 08          	mov    %rax,0x8(%rbx)
  401818:	83 ea 01             	sub    $0x1,%edx
  40181b:	89 53 04             	mov    %edx,0x4(%rbx)
  40181e:	48 83 c5 01          	add    $0x1,%rbp
  401822:	88 4d ff             	mov    %cl,-0x1(%rbp)
  401825:	80 f9 0a             	cmp    $0xa,%cl
  401828:	74 3c                	je     401866 <rio_readlineb+0xb0>
  40182a:	41 83 c5 01          	add    $0x1,%r13d
  40182e:	4c 39 f5             	cmp    %r14,%rbp
  401831:	74 30                	je     401863 <rio_readlineb+0xad>
  401833:	8b 53 04             	mov    0x4(%rbx),%edx
  401836:	85 d2                	test   %edx,%edx
  401838:	7e af                	jle    4017e9 <rio_readlineb+0x33>
  40183a:	eb cd                	jmp    401809 <rio_readlineb+0x53>
  40183c:	48 c7 c0 ff ff ff ff 	mov    $0xffffffffffffffff,%rax
  401843:	eb 05                	jmp    40184a <rio_readlineb+0x94>
  401845:	b8 00 00 00 00       	mov    $0x0,%eax
  40184a:	85 c0                	test   %eax,%eax
  40184c:	75 28                	jne    401876 <rio_readlineb+0xc0>
  40184e:	b8 00 00 00 00       	mov    $0x0,%eax
  401853:	41 83 fd 01          	cmp    $0x1,%r13d
  401857:	75 0d                	jne    401866 <rio_readlineb+0xb0>
  401859:	eb 12                	jmp    40186d <rio_readlineb+0xb7>
  40185b:	41 bd 01 00 00 00    	mov    $0x1,%r13d
  401861:	eb 03                	jmp    401866 <rio_readlineb+0xb0>
  401863:	4c 89 f5             	mov    %r14,%rbp
  401866:	c6 45 00 00          	movb   $0x0,0x0(%rbp)
  40186a:	49 63 c5             	movslq %r13d,%rax
  40186d:	5b                   	pop    %rbx
  40186e:	5d                   	pop    %rbp
  40186f:	41 5c                	pop    %r12
  401871:	41 5d                	pop    %r13
  401873:	41 5e                	pop    %r14
  401875:	c3                   	retq   
  401876:	48 c7 c0 ff ff ff ff 	mov    $0xffffffffffffffff,%rax
  40187d:	eb ee                	jmp    40186d <rio_readlineb+0xb7>

000000000040187f <submitr>:
  40187f:	41 57                	push   %r15
  401881:	41 56                	push   %r14
  401883:	41 55                	push   %r13
  401885:	41 54                	push   %r12
  401887:	55                   	push   %rbp
  401888:	53                   	push   %rbx
  401889:	48 81 ec 68 a0 00 00 	sub    $0xa068,%rsp
  401890:	49 89 fd             	mov    %rdi,%r13
  401893:	89 f5                	mov    %esi,%ebp
  401895:	48 89 14 24          	mov    %rdx,(%rsp)
  401899:	48 89 4c 24 08       	mov    %rcx,0x8(%rsp)
  40189e:	4c 89 44 24 18       	mov    %r8,0x18(%rsp)
  4018a3:	4c 89 4c 24 10       	mov    %r9,0x10(%rsp)
  4018a8:	48 8b 9c 24 a0 a0 00 	mov    0xa0a0(%rsp),%rbx
  4018af:	00 
  4018b0:	4c 8b bc 24 a8 a0 00 	mov    0xa0a8(%rsp),%r15
  4018b7:	00 
  4018b8:	c7 84 24 3c 20 00 00 	movl   $0x0,0x203c(%rsp)
  4018bf:	00 00 00 00 
  4018c3:	ba 00 00 00 00       	mov    $0x0,%edx
  4018c8:	be 01 00 00 00       	mov    $0x1,%esi
  4018cd:	bf 02 00 00 00       	mov    $0x2,%edi
  4018d2:	e8 09 f4 ff ff       	callq  400ce0 <socket@plt>
  4018d7:	85 c0                	test   %eax,%eax
  4018d9:	0f 88 21 01 00 00    	js     401a00 <submitr+0x181>
  4018df:	41 89 c4             	mov    %eax,%r12d
  4018e2:	4c 89 ef             	mov    %r13,%rdi
  4018e5:	e8 16 f3 ff ff       	callq  400c00 <gethostbyname@plt>
  4018ea:	48 85 c0             	test   %rax,%rax
  4018ed:	0f 84 5d 01 00 00    	je     401a50 <submitr+0x1d1>
  4018f3:	48 c7 84 24 50 a0 00 	movq   $0x0,0xa050(%rsp)
  4018fa:	00 00 00 00 00 
  4018ff:	48 c7 84 24 58 a0 00 	movq   $0x0,0xa058(%rsp)
  401906:	00 00 00 00 00 
  40190b:	66 c7 84 24 50 a0 00 	movw   $0x2,0xa050(%rsp)
  401912:	00 02 00 
  401915:	48 63 50 14          	movslq 0x14(%rax),%rdx
  401919:	48 8b 40 18          	mov    0x18(%rax),%rax
  40191d:	48 8b 30             	mov    (%rax),%rsi
  401920:	48 8d bc 24 54 a0 00 	lea    0xa054(%rsp),%rdi
  401927:	00 
  401928:	e8 33 f3 ff ff       	callq  400c60 <memmove@plt>
  40192d:	66 c1 cd 08          	ror    $0x8,%bp
  401931:	66 89 ac 24 52 a0 00 	mov    %bp,0xa052(%rsp)
  401938:	00 
  401939:	ba 10 00 00 00       	mov    $0x10,%edx
  40193e:	48 8d b4 24 50 a0 00 	lea    0xa050(%rsp),%rsi
  401945:	00 
  401946:	44 89 e7             	mov    %r12d,%edi
  401949:	e8 62 f3 ff ff       	callq  400cb0 <connect@plt>
  40194e:	85 c0                	test   %eax,%eax
  401950:	0f 88 65 01 00 00    	js     401abb <submitr+0x23c>
  401956:	49 c7 c1 ff ff ff ff 	mov    $0xffffffffffffffff,%r9
  40195d:	b8 00 00 00 00       	mov    $0x0,%eax
  401962:	4c 89 c9             	mov    %r9,%rcx
  401965:	48 89 df             	mov    %rbx,%rdi
  401968:	f2 ae                	repnz scas %es:(%rdi),%al
  40196a:	48 f7 d1             	not    %rcx
  40196d:	48 89 ce             	mov    %rcx,%rsi
  401970:	4c 89 c9             	mov    %r9,%rcx
  401973:	48 8b 3c 24          	mov    (%rsp),%rdi
  401977:	f2 ae                	repnz scas %es:(%rdi),%al
  401979:	49 89 c8             	mov    %rcx,%r8
  40197c:	4c 89 c9             	mov    %r9,%rcx
  40197f:	48 8b 7c 24 08       	mov    0x8(%rsp),%rdi
  401984:	f2 ae                	repnz scas %es:(%rdi),%al
  401986:	48 f7 d1             	not    %rcx
  401989:	48 89 ca             	mov    %rcx,%rdx
  40198c:	4c 89 c9             	mov    %r9,%rcx
  40198f:	48 8b 7c 24 10       	mov    0x10(%rsp),%rdi
  401994:	f2 ae                	repnz scas %es:(%rdi),%al
  401996:	4c 29 c2             	sub    %r8,%rdx
  401999:	48 29 ca             	sub    %rcx,%rdx
  40199c:	48 8d 44 76 fd       	lea    -0x3(%rsi,%rsi,2),%rax
  4019a1:	48 8d 44 02 7b       	lea    0x7b(%rdx,%rax,1),%rax
  4019a6:	48 3d 00 20 00 00    	cmp    $0x2000,%rax
  4019ac:	0f 87 66 01 00 00    	ja     401b18 <submitr+0x299>
  4019b2:	48 8d 94 24 40 40 00 	lea    0x4040(%rsp),%rdx
  4019b9:	00 
  4019ba:	b9 00 04 00 00       	mov    $0x400,%ecx
  4019bf:	b8 00 00 00 00       	mov    $0x0,%eax
  4019c4:	48 89 d7             	mov    %rdx,%rdi
  4019c7:	f3 48 ab             	rep stos %rax,%es:(%rdi)
  4019ca:	48 c7 c1 ff ff ff ff 	mov    $0xffffffffffffffff,%rcx
  4019d1:	48 89 df             	mov    %rbx,%rdi
  4019d4:	f2 ae                	repnz scas %es:(%rdi),%al
  4019d6:	48 f7 d1             	not    %rcx
  4019d9:	48 8d 41 ff          	lea    -0x1(%rcx),%rax
  4019dd:	83 f9 01             	cmp    $0x1,%ecx
  4019e0:	0f 84 45 05 00 00    	je     401f2b <submitr+0x6ac>
  4019e6:	8d 40 ff             	lea    -0x1(%rax),%eax
  4019e9:	4c 8d 74 03 01       	lea    0x1(%rbx,%rax,1),%r14
  4019ee:	48 89 d5             	mov    %rdx,%rbp
  4019f1:	49 bd d9 ff 00 00 00 	mov    $0x2000000000ffd9,%r13
  4019f8:	00 20 00 
  4019fb:	e9 a5 01 00 00       	jmpq   401ba5 <submitr+0x326>
  401a00:	48 b8 45 72 72 6f 72 	mov    $0x43203a726f727245,%rax
  401a07:	3a 20 43 
  401a0a:	48 ba 6c 69 65 6e 74 	mov    $0x6e7520746e65696c,%rdx
  401a11:	20 75 6e 
  401a14:	49 89 07             	mov    %rax,(%r15)
  401a17:	49 89 57 08          	mov    %rdx,0x8(%r15)
  401a1b:	48 b8 61 62 6c 65 20 	mov    $0x206f7420656c6261,%rax
  401a22:	74 6f 20 
  401a25:	48 ba 63 72 65 61 74 	mov    $0x7320657461657263,%rdx
  401a2c:	65 20 73 
  401a2f:	49 89 47 10          	mov    %rax,0x10(%r15)
  401a33:	49 89 57 18          	mov    %rdx,0x18(%r15)
  401a37:	41 c7 47 20 6f 63 6b 	movl   $0x656b636f,0x20(%r15)
  401a3e:	65 
  401a3f:	66 41 c7 47 24 74 00 	movw   $0x74,0x24(%r15)
  401a46:	b8 ff ff ff ff       	mov    $0xffffffff,%eax
  401a4b:	e9 03 03 00 00       	jmpq   401d53 <submitr+0x4d4>
  401a50:	48 b8 45 72 72 6f 72 	mov    $0x44203a726f727245,%rax
  401a57:	3a 20 44 
  401a5a:	48 ba 4e 53 20 69 73 	mov    $0x6e7520736920534e,%rdx
  401a61:	20 75 6e 
  401a64:	49 89 07             	mov    %rax,(%r15)
  401a67:	49 89 57 08          	mov    %rdx,0x8(%r15)
  401a6b:	48 b8 61 62 6c 65 20 	mov    $0x206f7420656c6261,%rax
  401a72:	74 6f 20 
  401a75:	48 ba 72 65 73 6f 6c 	mov    $0x2065766c6f736572,%rdx
  401a7c:	76 65 20 
  401a7f:	49 89 47 10          	mov    %rax,0x10(%r15)
  401a83:	49 89 57 18          	mov    %rdx,0x18(%r15)
  401a87:	48 b8 73 65 72 76 65 	mov    $0x6120726576726573,%rax
  401a8e:	72 20 61 
  401a91:	49 89 47 20          	mov    %rax,0x20(%r15)
  401a95:	41 c7 47 28 64 64 72 	movl   $0x65726464,0x28(%r15)
  401a9c:	65 
  401a9d:	66 41 c7 47 2c 73 73 	movw   $0x7373,0x2c(%r15)
  401aa4:	41 c6 47 2e 00       	movb   $0x0,0x2e(%r15)
  401aa9:	44 89 e7             	mov    %r12d,%edi
  401aac:	e8 ff f0 ff ff       	callq  400bb0 <close@plt>
  401ab1:	b8 ff ff ff ff       	mov    $0xffffffff,%eax
  401ab6:	e9 98 02 00 00       	jmpq   401d53 <submitr+0x4d4>
  401abb:	48 b8 45 72 72 6f 72 	mov    $0x55203a726f727245,%rax
  401ac2:	3a 20 55 
  401ac5:	48 ba 6e 61 62 6c 65 	mov    $0x6f7420656c62616e,%rdx
  401acc:	20 74 6f 
  401acf:	49 89 07             	mov    %rax,(%r15)
  401ad2:	49 89 57 08          	mov    %rdx,0x8(%r15)
  401ad6:	48 b8 20 63 6f 6e 6e 	mov    $0x7463656e6e6f6320,%rax
  401add:	65 63 74 
  401ae0:	48 ba 20 74 6f 20 74 	mov    $0x20656874206f7420,%rdx
  401ae7:	68 65 20 
  401aea:	49 89 47 10          	mov    %rax,0x10(%r15)
  401aee:	49 89 57 18          	mov    %rdx,0x18(%r15)
  401af2:	41 c7 47 20 73 65 72 	movl   $0x76726573,0x20(%r15)
  401af9:	76 
  401afa:	66 41 c7 47 24 65 72 	movw   $0x7265,0x24(%r15)
  401b01:	41 c6 47 26 00       	movb   $0x0,0x26(%r15)
  401b06:	44 89 e7             	mov    %r12d,%edi
  401b09:	e8 a2 f0 ff ff       	callq  400bb0 <close@plt>
  401b0e:	b8 ff ff ff ff       	mov    $0xffffffff,%eax
  401b13:	e9 3b 02 00 00       	jmpq   401d53 <submitr+0x4d4>
  401b18:	48 b8 45 72 72 6f 72 	mov    $0x52203a726f727245,%rax
  401b1f:	3a 20 52 
  401b22:	48 ba 65 73 75 6c 74 	mov    $0x747320746c757365,%rdx
  401b29:	20 73 74 
  401b2c:	49 89 07             	mov    %rax,(%r15)
  401b2f:	49 89 57 08          	mov    %rdx,0x8(%r15)
  401b33:	48 b8 72 69 6e 67 20 	mov    $0x6f6f7420676e6972,%rax
  401b3a:	74 6f 6f 
  401b3d:	48 ba 20 6c 61 72 67 	mov    $0x202e656772616c20,%rdx
  401b44:	65 2e 20 
  401b47:	49 89 47 10          	mov    %rax,0x10(%r15)
  401b4b:	49 89 57 18          	mov    %rdx,0x18(%r15)
  401b4f:	48 b8 49 6e 63 72 65 	mov    $0x6573616572636e49,%rax
  401b56:	61 73 65 
  401b59:	48 ba 20 53 55 42 4d 	mov    $0x5254494d42555320,%rdx
  401b60:	49 54 52 
  401b63:	49 89 47 20          	mov    %rax,0x20(%r15)
  401b67:	49 89 57 28          	mov    %rdx,0x28(%r15)
  401b6b:	48 b8 5f 4d 41 58 42 	mov    $0x46554258414d5f,%rax
  401b72:	55 46 00 
  401b75:	49 89 47 30          	mov    %rax,0x30(%r15)
  401b79:	44 89 e7             	mov    %r12d,%edi
  401b7c:	e8 2f f0 ff ff       	callq  400bb0 <close@plt>
  401b81:	b8 ff ff ff ff       	mov    $0xffffffff,%eax
  401b86:	e9 c8 01 00 00       	jmpq   401d53 <submitr+0x4d4>
  401b8b:	49 0f a3 c5          	bt     %rax,%r13
  401b8f:	73 1e                	jae    401baf <submitr+0x330>
  401b91:	88 55 00             	mov    %dl,0x0(%rbp)
  401b94:	48 8d 6d 01          	lea    0x1(%rbp),%rbp
  401b98:	48 83 c3 01          	add    $0x1,%rbx
  401b9c:	49 39 de             	cmp    %rbx,%r14
  401b9f:	0f 84 86 03 00 00    	je     401f2b <submitr+0x6ac>
  401ba5:	0f b6 13             	movzbl (%rbx),%edx
  401ba8:	8d 42 d6             	lea    -0x2a(%rdx),%eax
  401bab:	3c 35                	cmp    $0x35,%al
  401bad:	76 dc                	jbe    401b8b <submitr+0x30c>
  401baf:	89 d0                	mov    %edx,%eax
  401bb1:	83 e0 df             	and    $0xffffffffffffffdf,%eax
  401bb4:	83 e8 41             	sub    $0x41,%eax
  401bb7:	3c 19                	cmp    $0x19,%al
  401bb9:	76 d6                	jbe    401b91 <submitr+0x312>
  401bbb:	80 fa 20             	cmp    $0x20,%dl
  401bbe:	74 45                	je     401c05 <submitr+0x386>
  401bc0:	8d 42 e0             	lea    -0x20(%rdx),%eax
  401bc3:	3c 5f                	cmp    $0x5f,%al
  401bc5:	76 09                	jbe    401bd0 <submitr+0x351>
  401bc7:	80 fa 09             	cmp    $0x9,%dl
  401bca:	0f 85 ce 02 00 00    	jne    401e9e <submitr+0x61f>
  401bd0:	0f b6 d2             	movzbl %dl,%edx
  401bd3:	be 80 29 40 00       	mov    $0x402980,%esi
  401bd8:	48 8d 7c 24 28       	lea    0x28(%rsp),%rdi
  401bdd:	b8 00 00 00 00       	mov    $0x0,%eax
  401be2:	e8 a9 f0 ff ff       	callq  400c90 <sprintf@plt>
  401be7:	0f b6 44 24 28       	movzbl 0x28(%rsp),%eax
  401bec:	88 45 00             	mov    %al,0x0(%rbp)
  401bef:	0f b6 44 24 29       	movzbl 0x29(%rsp),%eax
  401bf4:	88 45 01             	mov    %al,0x1(%rbp)
  401bf7:	0f b6 44 24 2a       	movzbl 0x2a(%rsp),%eax
  401bfc:	88 45 02             	mov    %al,0x2(%rbp)
  401bff:	48 8d 6d 03          	lea    0x3(%rbp),%rbp
  401c03:	eb 93                	jmp    401b98 <submitr+0x319>
  401c05:	c6 45 00 2b          	movb   $0x2b,0x0(%rbp)
  401c09:	48 8d 6d 01          	lea    0x1(%rbp),%rbp
  401c0d:	eb 89                	jmp    401b98 <submitr+0x319>
  401c0f:	48 01 c5             	add    %rax,%rbp
  401c12:	48 29 c3             	sub    %rax,%rbx
  401c15:	0f 84 7e 03 00 00    	je     401f99 <submitr+0x71a>
  401c1b:	48 89 da             	mov    %rbx,%rdx
  401c1e:	48 89 ee             	mov    %rbp,%rsi
  401c21:	44 89 e7             	mov    %r12d,%edi
  401c24:	e8 57 ef ff ff       	callq  400b80 <write@plt>
  401c29:	48 85 c0             	test   %rax,%rax
  401c2c:	7f e1                	jg     401c0f <submitr+0x390>
  401c2e:	e8 1d ef ff ff       	callq  400b50 <__errno_location@plt>
  401c33:	83 38 04             	cmpl   $0x4,(%rax)
  401c36:	0f 85 03 02 00 00    	jne    401e3f <submitr+0x5c0>
  401c3c:	4c 89 e8             	mov    %r13,%rax
  401c3f:	eb ce                	jmp    401c0f <submitr+0x390>
  401c41:	48 b8 45 72 72 6f 72 	mov    $0x43203a726f727245,%rax
  401c48:	3a 20 43 
  401c4b:	48 ba 6c 69 65 6e 74 	mov    $0x6e7520746e65696c,%rdx
  401c52:	20 75 6e 
  401c55:	49 89 07             	mov    %rax,(%r15)
  401c58:	49 89 57 08          	mov    %rdx,0x8(%r15)
  401c5c:	48 b8 61 62 6c 65 20 	mov    $0x206f7420656c6261,%rax
  401c63:	74 6f 20 
  401c66:	48 ba 72 65 61 64 20 	mov    $0x7269662064616572,%rdx
  401c6d:	66 69 72 
  401c70:	49 89 47 10          	mov    %rax,0x10(%r15)
  401c74:	49 89 57 18          	mov    %rdx,0x18(%r15)
  401c78:	48 b8 73 74 20 68 65 	mov    $0x6564616568207473,%rax
  401c7f:	61 64 65 
  401c82:	48 ba 72 20 66 72 6f 	mov    $0x73206d6f72662072,%rdx
  401c89:	6d 20 73 
  401c8c:	49 89 47 20          	mov    %rax,0x20(%r15)
  401c90:	49 89 57 28          	mov    %rdx,0x28(%r15)
  401c94:	41 c7 47 30 65 72 76 	movl   $0x65767265,0x30(%r15)
  401c9b:	65 
  401c9c:	66 41 c7 47 34 72 00 	movw   $0x72,0x34(%r15)
  401ca3:	44 89 e7             	mov    %r12d,%edi
  401ca6:	e8 05 ef ff ff       	callq  400bb0 <close@plt>
  401cab:	b8 ff ff ff ff       	mov    $0xffffffff,%eax
  401cb0:	e9 9e 00 00 00       	jmpq   401d53 <submitr+0x4d4>
  401cb5:	ba 00 20 00 00       	mov    $0x2000,%edx
  401cba:	48 8d b4 24 40 60 00 	lea    0x6040(%rsp),%rsi
  401cc1:	00 
  401cc2:	48 8d bc 24 40 80 00 	lea    0x8040(%rsp),%rdi
  401cc9:	00 
  401cca:	e8 e7 fa ff ff       	callq  4017b6 <rio_readlineb>
  401ccf:	48 85 c0             	test   %rax,%rax
  401cd2:	0f 8e 8d 00 00 00    	jle    401d65 <submitr+0x4e6>
  401cd8:	80 bc 24 40 60 00 00 	cmpb   $0xd,0x6040(%rsp)
  401cdf:	0d 
  401ce0:	75 d3                	jne    401cb5 <submitr+0x436>
  401ce2:	80 bc 24 41 60 00 00 	cmpb   $0xa,0x6041(%rsp)
  401ce9:	0a 
  401cea:	75 c9                	jne    401cb5 <submitr+0x436>
  401cec:	80 bc 24 42 60 00 00 	cmpb   $0x0,0x6042(%rsp)
  401cf3:	00 
  401cf4:	75 bf                	jne    401cb5 <submitr+0x436>
  401cf6:	ba 00 20 00 00       	mov    $0x2000,%edx
  401cfb:	48 8d b4 24 40 60 00 	lea    0x6040(%rsp),%rsi
  401d02:	00 
  401d03:	48 8d bc 24 40 80 00 	lea    0x8040(%rsp),%rdi
  401d0a:	00 
  401d0b:	e8 a6 fa ff ff       	callq  4017b6 <rio_readlineb>
  401d10:	48 85 c0             	test   %rax,%rax
  401d13:	0f 8e b3 00 00 00    	jle    401dcc <submitr+0x54d>
  401d19:	48 8d b4 24 40 60 00 	lea    0x6040(%rsp),%rsi
  401d20:	00 
  401d21:	4c 89 ff             	mov    %r15,%rdi
  401d24:	e8 37 ee ff ff       	callq  400b60 <strcpy@plt>
  401d29:	44 89 e7             	mov    %r12d,%edi
  401d2c:	e8 7f ee ff ff       	callq  400bb0 <close@plt>
  401d31:	41 0f b6 07          	movzbl (%r15),%eax
  401d35:	83 e8 4f             	sub    $0x4f,%eax
  401d38:	75 0f                	jne    401d49 <submitr+0x4ca>
  401d3a:	41 0f b6 47 01       	movzbl 0x1(%r15),%eax
  401d3f:	83 e8 4b             	sub    $0x4b,%eax
  401d42:	75 05                	jne    401d49 <submitr+0x4ca>
  401d44:	41 0f b6 47 02       	movzbl 0x2(%r15),%eax
  401d49:	85 c0                	test   %eax,%eax
  401d4b:	0f 95 c0             	setne  %al
  401d4e:	0f b6 c0             	movzbl %al,%eax
  401d51:	f7 d8                	neg    %eax
  401d53:	48 81 c4 68 a0 00 00 	add    $0xa068,%rsp
  401d5a:	5b                   	pop    %rbx
  401d5b:	5d                   	pop    %rbp
  401d5c:	41 5c                	pop    %r12
  401d5e:	41 5d                	pop    %r13
  401d60:	41 5e                	pop    %r14
  401d62:	41 5f                	pop    %r15
  401d64:	c3                   	retq   
  401d65:	48 b8 45 72 72 6f 72 	mov    $0x43203a726f727245,%rax
  401d6c:	3a 20 43 
  401d6f:	48 ba 6c 69 65 6e 74 	mov    $0x6e7520746e65696c,%rdx
  401d76:	20 75 6e 
  401d79:	49 89 07             	mov    %rax,(%r15)
  401d7c:	49 89 57 08          	mov    %rdx,0x8(%r15)
  401d80:	48 b8 61 62 6c 65 20 	mov    $0x206f7420656c6261,%rax
  401d87:	74 6f 20 
  401d8a:	48 ba 72 65 61 64 20 	mov    $0x6165682064616572,%rdx
  401d91:	68 65 61 
  401d94:	49 89 47 10          	mov    %rax,0x10(%r15)
  401d98:	49 89 57 18          	mov    %rdx,0x18(%r15)
  401d9c:	48 b8 64 65 72 73 20 	mov    $0x6f72662073726564,%rax
  401da3:	66 72 6f 
  401da6:	48 ba 6d 20 73 65 72 	mov    $0x726576726573206d,%rdx
  401dad:	76 65 72 
  401db0:	49 89 47 20          	mov    %rax,0x20(%r15)
  401db4:	49 89 57 28          	mov    %rdx,0x28(%r15)
  401db8:	41 c6 47 30 00       	movb   $0x0,0x30(%r15)
  401dbd:	44 89 e7             	mov    %r12d,%edi
  401dc0:	e8 eb ed ff ff       	callq  400bb0 <close@plt>
  401dc5:	b8 ff ff ff ff       	mov    $0xffffffff,%eax
  401dca:	eb 87                	jmp    401d53 <submitr+0x4d4>
  401dcc:	48 b8 45 72 72 6f 72 	mov    $0x43203a726f727245,%rax
  401dd3:	3a 20 43 
  401dd6:	48 ba 6c 69 65 6e 74 	mov    $0x6e7520746e65696c,%rdx
  401ddd:	20 75 6e 
  401de0:	49 89 07             	mov    %rax,(%r15)
  401de3:	49 89 57 08          	mov    %rdx,0x8(%r15)
  401de7:	48 b8 61 62 6c 65 20 	mov    $0x206f7420656c6261,%rax
  401dee:	74 6f 20 
  401df1:	48 ba 72 65 61 64 20 	mov    $0x6174732064616572,%rdx
  401df8:	73 74 61 
  401dfb:	49 89 47 10          	mov    %rax,0x10(%r15)
  401dff:	49 89 57 18          	mov    %rdx,0x18(%r15)
  401e03:	48 b8 74 75 73 20 6d 	mov    $0x7373656d20737574,%rax
  401e0a:	65 73 73 
  401e0d:	48 ba 61 67 65 20 66 	mov    $0x6d6f726620656761,%rdx
  401e14:	72 6f 6d 
  401e17:	49 89 47 20          	mov    %rax,0x20(%r15)
  401e1b:	49 89 57 28          	mov    %rdx,0x28(%r15)
  401e1f:	48 b8 20 73 65 72 76 	mov    $0x72657672657320,%rax
  401e26:	65 72 00 
  401e29:	49 89 47 30          	mov    %rax,0x30(%r15)
  401e2d:	44 89 e7             	mov    %r12d,%edi
  401e30:	e8 7b ed ff ff       	callq  400bb0 <close@plt>
  401e35:	b8 ff ff ff ff       	mov    $0xffffffff,%eax
  401e3a:	e9 14 ff ff ff       	jmpq   401d53 <submitr+0x4d4>
  401e3f:	48 b8 45 72 72 6f 72 	mov    $0x43203a726f727245,%rax
  401e46:	3a 20 43 
  401e49:	48 ba 6c 69 65 6e 74 	mov    $0x6e7520746e65696c,%rdx
  401e50:	20 75 6e 
  401e53:	49 89 07             	mov    %rax,(%r15)
  401e56:	49 89 57 08          	mov    %rdx,0x8(%r15)
  401e5a:	48 b8 61 62 6c 65 20 	mov    $0x206f7420656c6261,%rax
  401e61:	74 6f 20 
  401e64:	48 ba 77 72 69 74 65 	mov    $0x6f74206574697277,%rdx
  401e6b:	20 74 6f 
  401e6e:	49 89 47 10          	mov    %rax,0x10(%r15)
  401e72:	49 89 57 18          	mov    %rdx,0x18(%r15)
  401e76:	48 b8 20 74 68 65 20 	mov    $0x7265732065687420,%rax
  401e7d:	73 65 72 
  401e80:	49 89 47 20          	mov    %rax,0x20(%r15)
  401e84:	41 c7 47 28 76 65 72 	movl   $0x726576,0x28(%r15)
  401e8b:	00 
  401e8c:	44 89 e7             	mov    %r12d,%edi
  401e8f:	e8 1c ed ff ff       	callq  400bb0 <close@plt>
  401e94:	b8 ff ff ff ff       	mov    $0xffffffff,%eax
  401e99:	e9 b5 fe ff ff       	jmpq   401d53 <submitr+0x4d4>
  401e9e:	48 b8 45 72 72 6f 72 	mov    $0x52203a726f727245,%rax
  401ea5:	3a 20 52 
  401ea8:	48 ba 65 73 75 6c 74 	mov    $0x747320746c757365,%rdx
  401eaf:	20 73 74 
  401eb2:	49 89 07             	mov    %rax,(%r15)
  401eb5:	49 89 57 08          	mov    %rdx,0x8(%r15)
  401eb9:	48 b8 72 69 6e 67 20 	mov    $0x6e6f6320676e6972,%rax
  401ec0:	63 6f 6e 
  401ec3:	48 ba 74 61 69 6e 73 	mov    $0x6e6120736e696174,%rdx
  401eca:	20 61 6e 
  401ecd:	49 89 47 10          	mov    %rax,0x10(%r15)
  401ed1:	49 89 57 18          	mov    %rdx,0x18(%r15)
  401ed5:	48 b8 20 69 6c 6c 65 	mov    $0x6c6167656c6c6920,%rax
  401edc:	67 61 6c 
  401edf:	48 ba 20 6f 72 20 75 	mov    $0x72706e7520726f20,%rdx
  401ee6:	6e 70 72 
  401ee9:	49 89 47 20          	mov    %rax,0x20(%r15)
  401eed:	49 89 57 28          	mov    %rdx,0x28(%r15)
  401ef1:	48 b8 69 6e 74 61 62 	mov    $0x20656c6261746e69,%rax
  401ef8:	6c 65 20 
  401efb:	48 ba 63 68 61 72 61 	mov    $0x6574636172616863,%rdx
  401f02:	63 74 65 
  401f05:	49 89 47 30          	mov    %rax,0x30(%r15)
  401f09:	49 89 57 38          	mov    %rdx,0x38(%r15)
  401f0d:	66 41 c7 47 40 72 2e 	movw   $0x2e72,0x40(%r15)
  401f14:	41 c6 47 42 00       	movb   $0x0,0x42(%r15)
  401f19:	44 89 e7             	mov    %r12d,%edi
  401f1c:	e8 8f ec ff ff       	callq  400bb0 <close@plt>
  401f21:	b8 ff ff ff ff       	mov    $0xffffffff,%eax
  401f26:	e9 28 fe ff ff       	jmpq   401d53 <submitr+0x4d4>
  401f2b:	48 8d 9c 24 40 60 00 	lea    0x6040(%rsp),%rbx
  401f32:	00 
  401f33:	48 83 ec 08          	sub    $0x8,%rsp
  401f37:	48 8d 84 24 48 40 00 	lea    0x4048(%rsp),%rax
  401f3e:	00 
  401f3f:	50                   	push   %rax
  401f40:	4c 8b 4c 24 20       	mov    0x20(%rsp),%r9
  401f45:	4c 8b 44 24 28       	mov    0x28(%rsp),%r8
  401f4a:	48 8b 4c 24 18       	mov    0x18(%rsp),%rcx
  401f4f:	48 8b 54 24 10       	mov    0x10(%rsp),%rdx
  401f54:	be 00 29 40 00       	mov    $0x402900,%esi
  401f59:	48 89 df             	mov    %rbx,%rdi
  401f5c:	b8 00 00 00 00       	mov    $0x0,%eax
  401f61:	e8 2a ed ff ff       	callq  400c90 <sprintf@plt>
  401f66:	48 c7 c1 ff ff ff ff 	mov    $0xffffffffffffffff,%rcx
  401f6d:	b8 00 00 00 00       	mov    $0x0,%eax
  401f72:	48 89 df             	mov    %rbx,%rdi
  401f75:	f2 ae                	repnz scas %es:(%rdi),%al
  401f77:	48 f7 d1             	not    %rcx
  401f7a:	48 83 c4 10          	add    $0x10,%rsp
  401f7e:	48 8d ac 24 40 60 00 	lea    0x6040(%rsp),%rbp
  401f85:	00 
  401f86:	41 bd 00 00 00 00    	mov    $0x0,%r13d
  401f8c:	48 83 e9 01          	sub    $0x1,%rcx
  401f90:	48 89 cb             	mov    %rcx,%rbx
  401f93:	0f 85 82 fc ff ff    	jne    401c1b <submitr+0x39c>
  401f99:	44 89 a4 24 40 80 00 	mov    %r12d,0x8040(%rsp)
  401fa0:	00 
  401fa1:	c7 84 24 44 80 00 00 	movl   $0x0,0x8044(%rsp)
  401fa8:	00 00 00 00 
  401fac:	48 8d 84 24 50 80 00 	lea    0x8050(%rsp),%rax
  401fb3:	00 
  401fb4:	48 89 84 24 48 80 00 	mov    %rax,0x8048(%rsp)
  401fbb:	00 
  401fbc:	ba 00 20 00 00       	mov    $0x2000,%edx
  401fc1:	48 8d b4 24 40 60 00 	lea    0x6040(%rsp),%rsi
  401fc8:	00 
  401fc9:	48 8d bc 24 40 80 00 	lea    0x8040(%rsp),%rdi
  401fd0:	00 
  401fd1:	e8 e0 f7 ff ff       	callq  4017b6 <rio_readlineb>
  401fd6:	48 85 c0             	test   %rax,%rax
  401fd9:	0f 8e 62 fc ff ff    	jle    401c41 <submitr+0x3c2>
  401fdf:	4c 8d 44 24 30       	lea    0x30(%rsp),%r8
  401fe4:	48 8d 8c 24 3c 20 00 	lea    0x203c(%rsp),%rcx
  401feb:	00 
  401fec:	48 8d 94 24 40 20 00 	lea    0x2040(%rsp),%rdx
  401ff3:	00 
  401ff4:	be 87 29 40 00       	mov    $0x402987,%esi
  401ff9:	48 8d bc 24 40 60 00 	lea    0x6040(%rsp),%rdi
  402000:	00 
  402001:	b8 00 00 00 00       	mov    $0x0,%eax
  402006:	e8 45 ec ff ff       	callq  400c50 <__isoc99_sscanf@plt>
  40200b:	8b 94 24 3c 20 00 00 	mov    0x203c(%rsp),%edx
  402012:	81 fa c8 00 00 00    	cmp    $0xc8,%edx
  402018:	0f 84 ba fc ff ff    	je     401cd8 <submitr+0x459>
  40201e:	48 8d 4c 24 30       	lea    0x30(%rsp),%rcx
  402023:	be d0 28 40 00       	mov    $0x4028d0,%esi
  402028:	4c 89 ff             	mov    %r15,%rdi
  40202b:	b8 00 00 00 00       	mov    $0x0,%eax
  402030:	e8 5b ec ff ff       	callq  400c90 <sprintf@plt>
  402035:	44 89 e7             	mov    %r12d,%edi
  402038:	e8 73 eb ff ff       	callq  400bb0 <close@plt>
  40203d:	b8 ff ff ff ff       	mov    $0xffffffff,%eax
  402042:	e9 0c fd ff ff       	jmpq   401d53 <submitr+0x4d4>

0000000000402047 <init_timeout>:
  402047:	85 ff                	test   %edi,%edi
  402049:	75 01                	jne    40204c <init_timeout+0x5>
  40204b:	c3                   	retq   
  40204c:	53                   	push   %rbx
  40204d:	89 fb                	mov    %edi,%ebx
  40204f:	be 8d 17 40 00       	mov    $0x40178d,%esi
  402054:	bf 0e 00 00 00       	mov    $0xe,%edi
  402059:	e8 92 eb ff ff       	callq  400bf0 <signal@plt>
  40205e:	85 db                	test   %ebx,%ebx
  402060:	bf 00 00 00 00       	mov    $0x0,%edi
  402065:	0f 49 fb             	cmovns %ebx,%edi
  402068:	e8 33 eb ff ff       	callq  400ba0 <alarm@plt>
  40206d:	5b                   	pop    %rbx
  40206e:	c3                   	retq   

000000000040206f <init_driver>:
  40206f:	55                   	push   %rbp
  402070:	53                   	push   %rbx
  402071:	48 83 ec 18          	sub    $0x18,%rsp
  402075:	48 89 fd             	mov    %rdi,%rbp
  402078:	be 01 00 00 00       	mov    $0x1,%esi
  40207d:	bf 0d 00 00 00       	mov    $0xd,%edi
  402082:	e8 69 eb ff ff       	callq  400bf0 <signal@plt>
  402087:	be 01 00 00 00       	mov    $0x1,%esi
  40208c:	bf 1d 00 00 00       	mov    $0x1d,%edi
  402091:	e8 5a eb ff ff       	callq  400bf0 <signal@plt>
  402096:	be 01 00 00 00       	mov    $0x1,%esi
  40209b:	bf 1d 00 00 00       	mov    $0x1d,%edi
  4020a0:	e8 4b eb ff ff       	callq  400bf0 <signal@plt>
  4020a5:	ba 00 00 00 00       	mov    $0x0,%edx
  4020aa:	be 01 00 00 00       	mov    $0x1,%esi
  4020af:	bf 02 00 00 00       	mov    $0x2,%edi
  4020b4:	e8 27 ec ff ff       	callq  400ce0 <socket@plt>
  4020b9:	85 c0                	test   %eax,%eax
  4020bb:	78 7c                	js     402139 <init_driver+0xca>
  4020bd:	89 c3                	mov    %eax,%ebx
  4020bf:	bf 32 28 40 00       	mov    $0x402832,%edi
  4020c4:	e8 37 eb ff ff       	callq  400c00 <gethostbyname@plt>
  4020c9:	48 85 c0             	test   %rax,%rax
  4020cc:	0f 84 b3 00 00 00    	je     402185 <init_driver+0x116>
  4020d2:	48 c7 04 24 00 00 00 	movq   $0x0,(%rsp)
  4020d9:	00 
  4020da:	48 c7 44 24 08 00 00 	movq   $0x0,0x8(%rsp)
  4020e1:	00 00 
  4020e3:	66 c7 04 24 02 00    	movw   $0x2,(%rsp)
  4020e9:	48 63 50 14          	movslq 0x14(%rax),%rdx
  4020ed:	48 8b 40 18          	mov    0x18(%rax),%rax
  4020f1:	48 8b 30             	mov    (%rax),%rsi
  4020f4:	48 8d 7c 24 04       	lea    0x4(%rsp),%rdi
  4020f9:	e8 62 eb ff ff       	callq  400c60 <memmove@plt>
  4020fe:	66 c7 44 24 02 3b 6e 	movw   $0x6e3b,0x2(%rsp)
  402105:	ba 10 00 00 00       	mov    $0x10,%edx
  40210a:	48 89 e6             	mov    %rsp,%rsi
  40210d:	89 df                	mov    %ebx,%edi
  40210f:	e8 9c eb ff ff       	callq  400cb0 <connect@plt>
  402114:	85 c0                	test   %eax,%eax
  402116:	0f 88 d1 00 00 00    	js     4021ed <init_driver+0x17e>
  40211c:	89 df                	mov    %ebx,%edi
  40211e:	e8 8d ea ff ff       	callq  400bb0 <close@plt>
  402123:	66 c7 45 00 4f 4b    	movw   $0x4b4f,0x0(%rbp)
  402129:	c6 45 02 00          	movb   $0x0,0x2(%rbp)
  40212d:	b8 00 00 00 00       	mov    $0x0,%eax
  402132:	48 83 c4 18          	add    $0x18,%rsp
  402136:	5b                   	pop    %rbx
  402137:	5d                   	pop    %rbp
  402138:	c3                   	retq   
  402139:	48 b8 45 72 72 6f 72 	mov    $0x43203a726f727245,%rax
  402140:	3a 20 43 
  402143:	48 ba 6c 69 65 6e 74 	mov    $0x6e7520746e65696c,%rdx
  40214a:	20 75 6e 
  40214d:	48 89 45 00          	mov    %rax,0x0(%rbp)
  402151:	48 89 55 08          	mov    %rdx,0x8(%rbp)
  402155:	48 b8 61 62 6c 65 20 	mov    $0x206f7420656c6261,%rax
  40215c:	74 6f 20 
  40215f:	48 ba 63 72 65 61 74 	mov    $0x7320657461657263,%rdx
  402166:	65 20 73 
  402169:	48 89 45 10          	mov    %rax,0x10(%rbp)
  40216d:	48 89 55 18          	mov    %rdx,0x18(%rbp)
  402171:	c7 45 20 6f 63 6b 65 	movl   $0x656b636f,0x20(%rbp)
  402178:	66 c7 45 24 74 00    	movw   $0x74,0x24(%rbp)
  40217e:	b8 ff ff ff ff       	mov    $0xffffffff,%eax
  402183:	eb ad                	jmp    402132 <init_driver+0xc3>
  402185:	48 b8 45 72 72 6f 72 	mov    $0x44203a726f727245,%rax
  40218c:	3a 20 44 
  40218f:	48 ba 4e 53 20 69 73 	mov    $0x6e7520736920534e,%rdx
  402196:	20 75 6e 
  402199:	48 89 45 00          	mov    %rax,0x0(%rbp)
  40219d:	48 89 55 08          	mov    %rdx,0x8(%rbp)
  4021a1:	48 b8 61 62 6c 65 20 	mov    $0x206f7420656c6261,%rax
  4021a8:	74 6f 20 
  4021ab:	48 ba 72 65 73 6f 6c 	mov    $0x2065766c6f736572,%rdx
  4021b2:	76 65 20 
  4021b5:	48 89 45 10          	mov    %rax,0x10(%rbp)
  4021b9:	48 89 55 18          	mov    %rdx,0x18(%rbp)
  4021bd:	48 b8 73 65 72 76 65 	mov    $0x6120726576726573,%rax
  4021c4:	72 20 61 
  4021c7:	48 89 45 20          	mov    %rax,0x20(%rbp)
  4021cb:	c7 45 28 64 64 72 65 	movl   $0x65726464,0x28(%rbp)
  4021d2:	66 c7 45 2c 73 73    	movw   $0x7373,0x2c(%rbp)
  4021d8:	c6 45 2e 00          	movb   $0x0,0x2e(%rbp)
  4021dc:	89 df                	mov    %ebx,%edi
  4021de:	e8 cd e9 ff ff       	callq  400bb0 <close@plt>
  4021e3:	b8 ff ff ff ff       	mov    $0xffffffff,%eax
  4021e8:	e9 45 ff ff ff       	jmpq   402132 <init_driver+0xc3>
  4021ed:	ba 32 28 40 00       	mov    $0x402832,%edx
  4021f2:	be 58 29 40 00       	mov    $0x402958,%esi
  4021f7:	48 89 ef             	mov    %rbp,%rdi
  4021fa:	b8 00 00 00 00       	mov    $0x0,%eax
  4021ff:	e8 8c ea ff ff       	callq  400c90 <sprintf@plt>
  402204:	89 df                	mov    %ebx,%edi
  402206:	e8 a5 e9 ff ff       	callq  400bb0 <close@plt>
  40220b:	b8 ff ff ff ff       	mov    $0xffffffff,%eax
  402210:	e9 1d ff ff ff       	jmpq   402132 <init_driver+0xc3>

0000000000402215 <driver_post>:
  402215:	53                   	push   %rbx
  402216:	4c 89 c3             	mov    %r8,%rbx
  402219:	85 c9                	test   %ecx,%ecx
  40221b:	75 17                	jne    402234 <driver_post+0x1f>
  40221d:	48 85 ff             	test   %rdi,%rdi
  402220:	74 05                	je     402227 <driver_post+0x12>
  402222:	80 3f 00             	cmpb   $0x0,(%rdi)
  402225:	75 2f                	jne    402256 <driver_post+0x41>
  402227:	66 c7 03 4f 4b       	movw   $0x4b4f,(%rbx)
  40222c:	c6 43 02 00          	movb   $0x0,0x2(%rbx)
  402230:	89 c8                	mov    %ecx,%eax
  402232:	5b                   	pop    %rbx
  402233:	c3                   	retq   
  402234:	48 89 d6             	mov    %rdx,%rsi
  402237:	bf 98 29 40 00       	mov    $0x402998,%edi
  40223c:	b8 00 00 00 00       	mov    $0x0,%eax
  402241:	e8 4a e9 ff ff       	callq  400b90 <printf@plt>
  402246:	66 c7 03 4f 4b       	movw   $0x4b4f,(%rbx)
  40224b:	c6 43 02 00          	movb   $0x0,0x2(%rbx)
  40224f:	b8 00 00 00 00       	mov    $0x0,%eax
  402254:	eb dc                	jmp    402232 <driver_post+0x1d>
  402256:	41 50                	push   %r8
  402258:	52                   	push   %rdx
  402259:	41 b9 af 29 40 00    	mov    $0x4029af,%r9d
  40225f:	49 89 f0             	mov    %rsi,%r8
  402262:	48 89 f9             	mov    %rdi,%rcx
  402265:	ba b3 29 40 00       	mov    $0x4029b3,%edx
  40226a:	be 6e 3b 00 00       	mov    $0x3b6e,%esi
  40226f:	bf 32 28 40 00       	mov    $0x402832,%edi
  402274:	e8 06 f6 ff ff       	callq  40187f <submitr>
  402279:	48 83 c4 10          	add    $0x10,%rsp
  40227d:	eb b3                	jmp    402232 <driver_post+0x1d>
  40227f:	90                   	nop

0000000000402280 <__libc_csu_init>:
  402280:	41 57                	push   %r15
  402282:	41 89 ff             	mov    %edi,%r15d
  402285:	41 56                	push   %r14
  402287:	49 89 f6             	mov    %rsi,%r14
  40228a:	41 55                	push   %r13
  40228c:	49 89 d5             	mov    %rdx,%r13
  40228f:	41 54                	push   %r12
  402291:	4c 8d 25 80 1b 20 00 	lea    0x201b80(%rip),%r12        # 603e18 <__frame_dummy_init_array_entry>
  402298:	55                   	push   %rbp
  402299:	48 8d 2d 80 1b 20 00 	lea    0x201b80(%rip),%rbp        # 603e20 <__init_array_end>
  4022a0:	53                   	push   %rbx
  4022a1:	4c 29 e5             	sub    %r12,%rbp
  4022a4:	31 db                	xor    %ebx,%ebx
  4022a6:	48 c1 fd 03          	sar    $0x3,%rbp
  4022aa:	48 83 ec 08          	sub    $0x8,%rsp
  4022ae:	e8 4d e8 ff ff       	callq  400b00 <_init>
  4022b3:	48 85 ed             	test   %rbp,%rbp
  4022b6:	74 1e                	je     4022d6 <__libc_csu_init+0x56>
  4022b8:	0f 1f 84 00 00 00 00 	nopl   0x0(%rax,%rax,1)
  4022bf:	00 
  4022c0:	4c 89 ea             	mov    %r13,%rdx
  4022c3:	4c 89 f6             	mov    %r14,%rsi
  4022c6:	44 89 ff             	mov    %r15d,%edi
  4022c9:	41 ff 14 dc          	callq  *(%r12,%rbx,8)
  4022cd:	48 83 c3 01          	add    $0x1,%rbx
  4022d1:	48 39 eb             	cmp    %rbp,%rbx
  4022d4:	75 ea                	jne    4022c0 <__libc_csu_init+0x40>
  4022d6:	48 83 c4 08          	add    $0x8,%rsp
  4022da:	5b                   	pop    %rbx
  4022db:	5d                   	pop    %rbp
  4022dc:	41 5c                	pop    %r12
  4022de:	41 5d                	pop    %r13
  4022e0:	41 5e                	pop    %r14
  4022e2:	41 5f                	pop    %r15
  4022e4:	c3                   	retq   
  4022e5:	90                   	nop
  4022e6:	66 2e 0f 1f 84 00 00 	nopw   %cs:0x0(%rax,%rax,1)
  4022ed:	00 00 00 

00000000004022f0 <__libc_csu_fini>:
  4022f0:	f3 c3                	repz retq 

Disassembly of section .fini:

00000000004022f4 <_fini>:
  4022f4:	48 83 ec 08          	sub    $0x8,%rsp
  4022f8:	48 83 c4 08          	add    $0x8,%rsp
  4022fc:	c3                   	retq   
